
rv32uc-p-rvc:     file format elf32-littleriscv


Disassembly of section .text.init:

80000000 <_start-0x80>:
80000000:	a071                	j	8000008c <trap_vector>
80000002:	0001                	nop
80000004:	a061                	j	8000008c <trap_vector>
80000006:	0001                	nop
80000008:	a051                	j	8000008c <trap_vector>
8000000a:	0001                	nop
8000000c:	a041                	j	8000008c <trap_vector>
8000000e:	0001                	nop
80000010:	a8b5                	j	8000008c <trap_vector>
80000012:	0001                	nop
80000014:	a8a5                	j	8000008c <trap_vector>
80000016:	0001                	nop
80000018:	a895                	j	8000008c <trap_vector>
8000001a:	0001                	nop
8000001c:	a885                	j	8000008c <trap_vector>
8000001e:	0001                	nop
80000020:	a0b5                	j	8000008c <trap_vector>
80000022:	0001                	nop
80000024:	a0a5                	j	8000008c <trap_vector>
80000026:	0001                	nop
80000028:	a095                	j	8000008c <trap_vector>
8000002a:	0001                	nop
8000002c:	a085                	j	8000008c <trap_vector>
8000002e:	0001                	nop
80000030:	a8b1                	j	8000008c <trap_vector>
80000032:	0001                	nop
80000034:	a8a1                	j	8000008c <trap_vector>
80000036:	0001                	nop
80000038:	a891                	j	8000008c <trap_vector>
8000003a:	0001                	nop
8000003c:	a881                	j	8000008c <trap_vector>
8000003e:	0001                	nop
80000040:	a0b1                	j	8000008c <trap_vector>
80000042:	0001                	nop
80000044:	a0a1                	j	8000008c <trap_vector>
80000046:	0001                	nop
80000048:	a091                	j	8000008c <trap_vector>
8000004a:	0001                	nop
8000004c:	a081                	j	8000008c <trap_vector>
8000004e:	0001                	nop
80000050:	a835                	j	8000008c <trap_vector>
80000052:	0001                	nop
80000054:	a825                	j	8000008c <trap_vector>
80000056:	0001                	nop
80000058:	a815                	j	8000008c <trap_vector>
8000005a:	0001                	nop
8000005c:	a805                	j	8000008c <trap_vector>
8000005e:	0001                	nop
80000060:	a035                	j	8000008c <trap_vector>
80000062:	0001                	nop
80000064:	a025                	j	8000008c <trap_vector>
80000066:	0001                	nop
80000068:	a015                	j	8000008c <trap_vector>
8000006a:	0001                	nop
8000006c:	a005                	j	8000008c <trap_vector>
8000006e:	0001                	nop
80000070:	a831                	j	8000008c <trap_vector>
80000072:	0001                	nop
80000074:	a821                	j	8000008c <trap_vector>
80000076:	0001                	nop
80000078:	a811                	j	8000008c <trap_vector>
8000007a:	0001                	nop
8000007c:	a801                	j	8000008c <trap_vector>
8000007e:	0001                	nop

80000080 <_start>:
80000080:	aa2d                	j	800001ba <reset_vector>
80000082:	0001                	nop

80000084 <trap_illegal_instr>:
80000084:	a021                	j	8000008c <trap_vector>
80000086:	0001                	nop

80000088 <trap_ecall>:
80000088:	a011                	j	8000008c <trap_vector>
8000008a:	0001                	nop

8000008c <trap_vector>:
8000008c:	34051073          	csrw	mscratch,a0
80000090:	00002517          	auipc	a0,0x2
80000094:	f7050513          	addi	a0,a0,-144 # 80002000 <test_trap_data>
80000098:	01e52023          	sw	t5,0(a0)
8000009c:	01f52223          	sw	t6,4(a0)
800000a0:	34202f73          	csrr	t5,mcause
800000a4:	040f4163          	bltz	t5,800000e6 <other_interrupts>
800000a8:	4fa1                	li	t6,8
800000aa:	07ff0263          	beq	t5,t6,8000010e <write_tohost>
800000ae:	4fa5                	li	t6,9
800000b0:	05ff0f63          	beq	t5,t6,8000010e <write_tohost>
800000b4:	4fad                	li	t6,11
800000b6:	05ff0c63          	beq	t5,t6,8000010e <write_tohost>
800000ba:	4f85                	li	t6,1
800000bc:	0bff0563          	beq	t5,t6,80000166 <ifetch_error_handler>
800000c0:	4f95                	li	t6,5
800000c2:	0dff0063          	beq	t5,t6,80000182 <load_error_handler>
800000c6:	4f9d                	li	t6,7
800000c8:	0dff0b63          	beq	t5,t6,8000019e <store_error_handler>
800000cc:	80000f17          	auipc	t5,0x80000
800000d0:	f34f0f13          	addi	t5,t5,-204 # 0 <_start-0x80000080>
800000d4:	000f0363          	beqz	t5,800000da <trap_vector+0x4e>
800000d8:	8f02                	jr	t5
800000da:	34202f73          	csrr	t5,mcause
800000de:	000f5363          	bgez	t5,800000e4 <handle_exception>
800000e2:	a009                	j	800000e4 <handle_exception>

800000e4 <handle_exception>:
800000e4:	a01d                	j	8000010a <other_interrupts+0x24>

800000e6 <other_interrupts>:
800000e6:	80000fb7          	lui	t6,0x80000
800000ea:	003f8f93          	addi	t6,t6,3 # 80000003 <_end+0xffffdff3>
800000ee:	05ff0463          	beq	t5,t6,80000136 <sft_irq_handler>
800000f2:	80000fb7          	lui	t6,0x80000
800000f6:	007f8f93          	addi	t6,t6,7 # 80000007 <_end+0xffffdff7>
800000fa:	05ff0a63          	beq	t5,t6,8000014e <tmr_irq_handler>
800000fe:	80000fb7          	lui	t6,0x80000
80000102:	00bf8f93          	addi	t6,t6,11 # 8000000b <_end+0xffffdffb>
80000106:	01ff0c63          	beq	t5,t6,8000011e <ext_irq_handler>
8000010a:	5391e193          	ori	gp,gp,1337

8000010e <write_tohost>:
8000010e:	4521                	li	a0,8
80000110:	30052073          	csrs	mstatus,a0
80000114:	00001f17          	auipc	t5,0x1
80000118:	ee3f2623          	sw	gp,-276(t5) # 80001000 <tohost>
8000011c:	bfcd                	j	8000010e <write_tohost>

8000011e <ext_irq_handler>:
8000011e:	00002517          	auipc	a0,0x2
80000122:	ee250513          	addi	a0,a0,-286 # 80002000 <test_trap_data>
80000126:	00052f03          	lw	t5,0(a0)
8000012a:	00452f83          	lw	t6,4(a0)
8000012e:	34002573          	csrr	a0,mscratch
80000132:	30200073          	mret

80000136 <sft_irq_handler>:
80000136:	00002517          	auipc	a0,0x2
8000013a:	eca50513          	addi	a0,a0,-310 # 80002000 <test_trap_data>
8000013e:	00052f03          	lw	t5,0(a0)
80000142:	00452f83          	lw	t6,4(a0)
80000146:	34002573          	csrr	a0,mscratch
8000014a:	30200073          	mret

8000014e <tmr_irq_handler>:
8000014e:	00002517          	auipc	a0,0x2
80000152:	eb250513          	addi	a0,a0,-334 # 80002000 <test_trap_data>
80000156:	00052f03          	lw	t5,0(a0)
8000015a:	00452f83          	lw	t6,4(a0)
8000015e:	34002573          	csrr	a0,mscratch
80000162:	30200073          	mret

80000166 <ifetch_error_handler>:
80000166:	00002517          	auipc	a0,0x2
8000016a:	e9a50513          	addi	a0,a0,-358 # 80002000 <test_trap_data>
8000016e:	00052f03          	lw	t5,0(a0)
80000172:	00452f83          	lw	t6,4(a0)
80000176:	34302573          	csrr	a0,mbadaddr
8000017a:	34002573          	csrr	a0,mscratch
8000017e:	30200073          	mret

80000182 <load_error_handler>:
80000182:	00002517          	auipc	a0,0x2
80000186:	e7e50513          	addi	a0,a0,-386 # 80002000 <test_trap_data>
8000018a:	00052f03          	lw	t5,0(a0)
8000018e:	00452f83          	lw	t6,4(a0)
80000192:	34302573          	csrr	a0,mbadaddr
80000196:	34002573          	csrr	a0,mscratch
8000019a:	30200073          	mret

8000019e <store_error_handler>:
8000019e:	00002517          	auipc	a0,0x2
800001a2:	e6250513          	addi	a0,a0,-414 # 80002000 <test_trap_data>
800001a6:	00052f03          	lw	t5,0(a0)
800001aa:	00452f83          	lw	t6,4(a0)
800001ae:	34302573          	csrr	a0,mbadaddr
800001b2:	34002573          	csrr	a0,mscratch
800001b6:	30200073          	mret

800001ba <reset_vector>:
800001ba:	00000f13          	li	t5,0
800001be:	00000f93          	li	t6,0
800001c2:	f1402573          	csrr	a0,mhartid
800001c6:	e101                	bnez	a0,800001c6 <reset_vector+0xc>
800001c8:	4181                	li	gp,0
800001ca:	00000297          	auipc	t0,0x0
800001ce:	ec228293          	addi	t0,t0,-318 # 8000008c <trap_vector>
800001d2:	4521                	li	a0,8
800001d4:	30052073          	csrs	mstatus,a0
800001d8:	fff00513          	li	a0,-1
800001dc:	30452073          	csrs	mie,a0
800001e0:	30529073          	csrw	mtvec,t0

800001e4 <post_mtvec>:
800001e4:	80000297          	auipc	t0,0x80000
800001e8:	e1c28293          	addi	t0,t0,-484 # 0 <_start-0x80000080>
800001ec:	00028e63          	beqz	t0,80000208 <post_mtvec+0x24>
800001f0:	10529073          	csrw	stvec,t0
800001f4:	0000b2b7          	lui	t0,0xb
800001f8:	10928293          	addi	t0,t0,265 # b109 <_start-0x7fff4f77>
800001fc:	30229073          	csrw	medeleg,t0
80000200:	30202373          	csrr	t1,medeleg
80000204:	ee6290e3          	bne	t0,t1,800000e4 <handle_exception>
80000208:	30005073          	csrwi	mstatus,0
8000020c:	08000513          	li	a0,128
80000210:	30052073          	csrs	mstatus,a0
80000214:	4501                	li	a0,0
80000216:	bfc51073          	csrw	0xbfc,a0
8000021a:	00000297          	auipc	t0,0x0
8000021e:	01428293          	addi	t0,t0,20 # 8000022e <post_mtvec+0x4a>
80000222:	34129073          	csrw	mepc,t0
80000226:	f1402573          	csrr	a0,mhartid
8000022a:	30200073          	mret
8000022e:	00200193          	li	gp,2
80000232:	29a00593          	li	a1,666
80000236:	00100613          	li	a2,1

8000023a <test_2>:
8000023a:	a1e1                	j	80000702 <data+0x4c2>
8000023c:	00000013          	nop

80000240 <data>:
80000240:	3210                	fld	fa2,32(a2)
80000242:	7654                	flw	fa3,44(a2)
80000244:	ba98                	fsd	fa4,48(a3)
80000246:	fedc                	fsw	fa5,60(a3)
80000248:	3210                	fld	fa2,32(a2)
8000024a:	7654                	flw	fa3,44(a2)
8000024c:	ba98                	fsd	fa4,48(a3)
8000024e:	fedc                	fsw	fa5,60(a3)
80000250:	00000013          	nop
80000254:	00000013          	nop
80000258:	00000013          	nop
8000025c:	00000013          	nop
80000260:	00000013          	nop
80000264:	00000013          	nop
80000268:	00000013          	nop
8000026c:	00000013          	nop
80000270:	00000013          	nop
80000274:	00000013          	nop
80000278:	00000013          	nop
8000027c:	00000013          	nop
80000280:	00000013          	nop
80000284:	00000013          	nop
80000288:	00000013          	nop
8000028c:	00000013          	nop
80000290:	00000013          	nop
80000294:	00000013          	nop
80000298:	00000013          	nop
8000029c:	00000013          	nop
800002a0:	00000013          	nop
800002a4:	00000013          	nop
800002a8:	00000013          	nop
800002ac:	00000013          	nop
800002b0:	00000013          	nop
800002b4:	00000013          	nop
800002b8:	00000013          	nop
800002bc:	00000013          	nop
800002c0:	00000013          	nop
800002c4:	00000013          	nop
800002c8:	00000013          	nop
800002cc:	00000013          	nop
800002d0:	00000013          	nop
800002d4:	00000013          	nop
800002d8:	00000013          	nop
800002dc:	00000013          	nop
800002e0:	00000013          	nop
800002e4:	00000013          	nop
800002e8:	00000013          	nop
800002ec:	00000013          	nop
800002f0:	00000013          	nop
800002f4:	00000013          	nop
800002f8:	00000013          	nop
800002fc:	00000013          	nop
	...
80000700:	0000                	unimp
80000702:	00160593          	addi	a1,a2,1
80000706:	00200e93          	li	t4,2
8000070a:	00200193          	li	gp,2
8000070e:	23d59063          	bne	a1,t4,8000092e <fail>
80000712:	00001137          	lui	sp,0x1
80000716:	23410113          	addi	sp,sp,564 # 1234 <_start-0x7fffee4c>

8000071a <test_3>:
8000071a:	1fe8                	addi	a0,sp,1020
8000071c:	00001eb7          	lui	t4,0x1
80000720:	630e8e93          	addi	t4,t4,1584 # 1630 <_start-0x7fffea50>
80000724:	00300193          	li	gp,3
80000728:	21d51363          	bne	a0,t4,8000092e <fail>

8000072c <test_4>:
8000072c:	617d                	addi	sp,sp,496
8000072e:	00001eb7          	lui	t4,0x1
80000732:	424e8e93          	addi	t4,t4,1060 # 1424 <_start-0x7fffec5c>
80000736:	00400193          	li	gp,4
8000073a:	1fd11a63          	bne	sp,t4,8000092e <fail>

8000073e <test_5>:
8000073e:	7101                	addi	sp,sp,-512
80000740:	00001eb7          	lui	t4,0x1
80000744:	224e8e93          	addi	t4,t4,548 # 1224 <_start-0x7fffee5c>
80000748:	00500193          	li	gp,5
8000074c:	1fd11163          	bne	sp,t4,8000092e <fail>
80000750:	00000597          	auipc	a1,0x0
80000754:	af058593          	addi	a1,a1,-1296 # 80000240 <data>

80000758 <test_6>:
80000758:	41c8                	lw	a0,4(a1)
8000075a:	0505                	addi	a0,a0,1
8000075c:	c1c8                	sw	a0,4(a1)
8000075e:	41d0                	lw	a2,4(a1)
80000760:	fedcceb7          	lui	t4,0xfedcc
80000764:	a99e8e93          	addi	t4,t4,-1383 # fedcba99 <_end+0x7edc9a89>
80000768:	00600193          	li	gp,6
8000076c:	1dd61163          	bne	a2,t4,8000092e <fail>

80000770 <test_8>:
80000770:	00106513          	ori	a0,zero,1
80000774:	1541                	addi	a0,a0,-16
80000776:	ff100e93          	li	t4,-15
8000077a:	00800193          	li	gp,8
8000077e:	1bd51863          	bne	a0,t4,8000092e <fail>

80000782 <test_9>:
80000782:	00106793          	ori	a5,zero,1
80000786:	57c1                	li	a5,-16
80000788:	ff000e93          	li	t4,-16
8000078c:	00900193          	li	gp,9
80000790:	19d79f63          	bne	a5,t4,8000092e <fail>

80000794 <test_11>:
80000794:	7405                	lui	s0,0xfffe1
80000796:	8431                	srai	s0,s0,0xc
80000798:	fe100e93          	li	t4,-31
8000079c:	00b00193          	li	gp,11
800007a0:	19d41763          	bne	s0,t4,8000092e <fail>

800007a4 <test_12>:
800007a4:	7405                	lui	s0,0xfffe1
800007a6:	8031                	srli	s0,s0,0xc
800007a8:	00100eb7          	lui	t4,0x100
800007ac:	fe1e8e93          	addi	t4,t4,-31 # fffe1 <_start-0x7ff0009f>
800007b0:	00c00193          	li	gp,12
800007b4:	17d41d63          	bne	s0,t4,8000092e <fail>

800007b8 <test_14>:
800007b8:	5479                	li	s0,-2
800007ba:	983d                	andi	s0,s0,-17
800007bc:	fee00e93          	li	t4,-18
800007c0:	00e00193          	li	gp,14
800007c4:	17d41563          	bne	s0,t4,8000092e <fail>

800007c8 <test_15>:
800007c8:	44d1                	li	s1,20
800007ca:	4519                	li	a0,6
800007cc:	8c89                	sub	s1,s1,a0
800007ce:	00e00e93          	li	t4,14
800007d2:	00f00193          	li	gp,15
800007d6:	15d49c63          	bne	s1,t4,8000092e <fail>

800007da <test_16>:
800007da:	44d1                	li	s1,20
800007dc:	4519                	li	a0,6
800007de:	8ca9                	xor	s1,s1,a0
800007e0:	01200e93          	li	t4,18
800007e4:	01000193          	li	gp,16
800007e8:	15d49363          	bne	s1,t4,8000092e <fail>

800007ec <test_17>:
800007ec:	44d1                	li	s1,20
800007ee:	4519                	li	a0,6
800007f0:	8cc9                	or	s1,s1,a0
800007f2:	01600e93          	li	t4,22
800007f6:	01100193          	li	gp,17
800007fa:	13d49a63          	bne	s1,t4,8000092e <fail>

800007fe <test_18>:
800007fe:	44d1                	li	s1,20
80000800:	4519                	li	a0,6
80000802:	8ce9                	and	s1,s1,a0
80000804:	00400e93          	li	t4,4
80000808:	01200193          	li	gp,18
8000080c:	13d49163          	bne	s1,t4,8000092e <fail>

80000810 <test_21>:
80000810:	00001437          	lui	s0,0x1
80000814:	23440413          	addi	s0,s0,564 # 1234 <_start-0x7fffee4c>
80000818:	0412                	slli	s0,s0,0x4
8000081a:	00012eb7          	lui	t4,0x12
8000081e:	340e8e93          	addi	t4,t4,832 # 12340 <_start-0x7ffedd40>
80000822:	01500193          	li	gp,21
80000826:	11d41463          	bne	s0,t4,8000092e <fail>

8000082a <test_30>:
8000082a:	4081                	li	ra,0
8000082c:	a011                	j	80000830 <test_30+0x6>
8000082e:	a011                	j	80000832 <test_30+0x8>
80000830:	a011                	j	80000834 <test_30+0xa>
80000832:	a8f5                	j	8000092e <fail>
80000834:	00000e93          	li	t4,0
80000838:	01e00193          	li	gp,30
8000083c:	0fd09963          	bne	ra,t4,8000092e <fail>

80000840 <test_31>:
80000840:	4501                	li	a0,0
80000842:	c111                	beqz	a0,80000846 <test_31+0x6>
80000844:	a011                	j	80000848 <test_31+0x8>
80000846:	a011                	j	8000084a <test_31+0xa>
80000848:	a0dd                	j	8000092e <fail>
8000084a:	00000e93          	li	t4,0
8000084e:	01f00193          	li	gp,31
80000852:	0dd01e63          	bne	zero,t4,8000092e <fail>

80000856 <test_32>:
80000856:	4505                	li	a0,1
80000858:	e111                	bnez	a0,8000085c <test_32+0x6>
8000085a:	a011                	j	8000085e <test_32+0x8>
8000085c:	a011                	j	80000860 <test_32+0xa>
8000085e:	a8c1                	j	8000092e <fail>
80000860:	00000e93          	li	t4,0
80000864:	02000193          	li	gp,32
80000868:	0dd01363          	bne	zero,t4,8000092e <fail>

8000086c <test_33>:
8000086c:	4505                	li	a0,1
8000086e:	c111                	beqz	a0,80000872 <test_33+0x6>
80000870:	a011                	j	80000874 <test_33+0x8>
80000872:	a875                	j	8000092e <fail>
80000874:	00000e93          	li	t4,0
80000878:	02100193          	li	gp,33
8000087c:	0bd01963          	bne	zero,t4,8000092e <fail>

80000880 <test_34>:
80000880:	4501                	li	a0,0
80000882:	e111                	bnez	a0,80000886 <test_34+0x6>
80000884:	a011                	j	80000888 <test_34+0x8>
80000886:	a065                	j	8000092e <fail>
80000888:	00000e93          	li	t4,0
8000088c:	02200193          	li	gp,34
80000890:	09d01f63          	bne	zero,t4,8000092e <fail>

80000894 <test_35>:
80000894:	00000297          	auipc	t0,0x0
80000898:	00e28293          	addi	t0,t0,14 # 800008a2 <test_35+0xe>
8000089c:	4081                	li	ra,0
8000089e:	8282                	jr	t0
800008a0:	a011                	j	800008a4 <test_35+0x10>
800008a2:	a011                	j	800008a6 <test_35+0x12>
800008a4:	a069                	j	8000092e <fail>
800008a6:	00000e93          	li	t4,0
800008aa:	02300193          	li	gp,35
800008ae:	09d09063          	bne	ra,t4,8000092e <fail>

800008b2 <test_36>:
800008b2:	00000297          	auipc	t0,0x0
800008b6:	00e28293          	addi	t0,t0,14 # 800008c0 <test_36+0xe>
800008ba:	4081                	li	ra,0
800008bc:	9282                	jalr	t0
800008be:	a011                	j	800008c2 <test_36+0x10>
800008c0:	a011                	j	800008c4 <test_36+0x12>
800008c2:	a0b5                	j	8000092e <fail>
800008c4:	405080b3          	sub	ra,ra,t0
800008c8:	ffe00e93          	li	t4,-2
800008cc:	02400193          	li	gp,36
800008d0:	05d09f63          	bne	ra,t4,8000092e <fail>

800008d4 <test_37>:
800008d4:	00000297          	auipc	t0,0x0
800008d8:	00e28293          	addi	t0,t0,14 # 800008e2 <test_37+0xe>
800008dc:	4081                	li	ra,0
800008de:	2011                	jal	800008e2 <test_37+0xe>
800008e0:	a011                	j	800008e4 <test_37+0x10>
800008e2:	a011                	j	800008e6 <test_37+0x12>
800008e4:	a0a9                	j	8000092e <fail>
800008e6:	405080b3          	sub	ra,ra,t0
800008ea:	ffe00e93          	li	t4,-2
800008ee:	02500193          	li	gp,37
800008f2:	03d09e63          	bne	ra,t4,8000092e <fail>
800008f6:	00000117          	auipc	sp,0x0
800008fa:	94a10113          	addi	sp,sp,-1718 # 80000240 <data>

800008fe <test_40>:
800008fe:	4532                	lw	a0,12(sp)
80000900:	0505                	addi	a0,a0,1
80000902:	c62a                	sw	a0,12(sp)
80000904:	4632                	lw	a2,12(sp)
80000906:	fedcceb7          	lui	t4,0xfedcc
8000090a:	a99e8e93          	addi	t4,t4,-1383 # fedcba99 <_end+0x7edc9a89>
8000090e:	02800193          	li	gp,40
80000912:	01d61e63          	bne	a2,t4,8000092e <fail>

80000916 <test_42>:
80000916:	12300513          	li	a0,291
8000091a:	82aa                	mv	t0,a0
8000091c:	92aa                	add	t0,t0,a0
8000091e:	24600e93          	li	t4,582
80000922:	02a00193          	li	gp,42
80000926:	01d29463          	bne	t0,t4,8000092e <fail>
8000092a:	00301963          	bne	zero,gp,8000093c <pass>

8000092e <fail>:
8000092e:	00018063          	beqz	gp,8000092e <fail>
80000932:	0186                	slli	gp,gp,0x1
80000934:	0011e193          	ori	gp,gp,1
80000938:	00000073          	ecall

8000093c <pass>:
8000093c:	4185                	li	gp,1
8000093e:	00000073          	ecall
	...

Disassembly of section .tohost:

80001000 <tohost>:
	...

80001040 <fromhost>:
	...

Disassembly of section .data:

80002000 <test_trap_data>:
	...
