
soc-p-dtm:     file format elf32-littleriscv


Disassembly of section .text.init:

80000000 <_start-0x80>:
80000000:	a071                	j	8000008c <trap_vector>
80000002:	0001                	nop
80000004:	a061                	j	8000008c <trap_vector>
80000006:	0001                	nop
80000008:	a051                	j	8000008c <trap_vector>
8000000a:	0001                	nop
8000000c:	a041                	j	8000008c <trap_vector>
8000000e:	0001                	nop
80000010:	a8b5                	j	8000008c <trap_vector>
80000012:	0001                	nop
80000014:	a8a5                	j	8000008c <trap_vector>
80000016:	0001                	nop
80000018:	a895                	j	8000008c <trap_vector>
8000001a:	0001                	nop
8000001c:	a885                	j	8000008c <trap_vector>
8000001e:	0001                	nop
80000020:	a0b5                	j	8000008c <trap_vector>
80000022:	0001                	nop
80000024:	a0a5                	j	8000008c <trap_vector>
80000026:	0001                	nop
80000028:	a095                	j	8000008c <trap_vector>
8000002a:	0001                	nop
8000002c:	a085                	j	8000008c <trap_vector>
8000002e:	0001                	nop
80000030:	a8b1                	j	8000008c <trap_vector>
80000032:	0001                	nop
80000034:	a8a1                	j	8000008c <trap_vector>
80000036:	0001                	nop
80000038:	a891                	j	8000008c <trap_vector>
8000003a:	0001                	nop
8000003c:	a881                	j	8000008c <trap_vector>
8000003e:	0001                	nop
80000040:	a0b1                	j	8000008c <trap_vector>
80000042:	0001                	nop
80000044:	a0a1                	j	8000008c <trap_vector>
80000046:	0001                	nop
80000048:	a091                	j	8000008c <trap_vector>
8000004a:	0001                	nop
8000004c:	a081                	j	8000008c <trap_vector>
8000004e:	0001                	nop
80000050:	a835                	j	8000008c <trap_vector>
80000052:	0001                	nop
80000054:	a825                	j	8000008c <trap_vector>
80000056:	0001                	nop
80000058:	a815                	j	8000008c <trap_vector>
8000005a:	0001                	nop
8000005c:	a805                	j	8000008c <trap_vector>
8000005e:	0001                	nop
80000060:	a035                	j	8000008c <trap_vector>
80000062:	0001                	nop
80000064:	a025                	j	8000008c <trap_vector>
80000066:	0001                	nop
80000068:	a015                	j	8000008c <trap_vector>
8000006a:	0001                	nop
8000006c:	a005                	j	8000008c <trap_vector>
8000006e:	0001                	nop
80000070:	a831                	j	8000008c <trap_vector>
80000072:	0001                	nop
80000074:	a821                	j	8000008c <trap_vector>
80000076:	0001                	nop
80000078:	a811                	j	8000008c <trap_vector>
8000007a:	0001                	nop
8000007c:	a801                	j	8000008c <trap_vector>
8000007e:	0001                	nop

80000080 <_start>:
80000080:	aa2d                	j	800001ba <reset_vector>
80000082:	0001                	nop

80000084 <trap_illegal_instr>:
80000084:	a021                	j	8000008c <trap_vector>
80000086:	0001                	nop

80000088 <trap_ecall>:
80000088:	a011                	j	8000008c <trap_vector>
8000008a:	0001                	nop

8000008c <trap_vector>:
8000008c:	34051073          	csrw	mscratch,a0
80000090:	00002517          	auipc	a0,0x2
80000094:	f7050513          	addi	a0,a0,-144 # 80002000 <test_trap_data>
80000098:	01e52023          	sw	t5,0(a0)
8000009c:	01f52223          	sw	t6,4(a0)
800000a0:	34202f73          	csrr	t5,mcause
800000a4:	040f4163          	bltz	t5,800000e6 <other_interrupts>
800000a8:	4fa1                	li	t6,8
800000aa:	07ff0263          	beq	t5,t6,8000010e <write_tohost>
800000ae:	4fa5                	li	t6,9
800000b0:	05ff0f63          	beq	t5,t6,8000010e <write_tohost>
800000b4:	4fad                	li	t6,11
800000b6:	05ff0c63          	beq	t5,t6,8000010e <write_tohost>
800000ba:	4f85                	li	t6,1
800000bc:	0bff0563          	beq	t5,t6,80000166 <ifetch_error_handler>
800000c0:	4f95                	li	t6,5
800000c2:	0dff0063          	beq	t5,t6,80000182 <load_error_handler>
800000c6:	4f9d                	li	t6,7
800000c8:	0dff0b63          	beq	t5,t6,8000019e <store_error_handler>
800000cc:	80000f17          	auipc	t5,0x80000
800000d0:	f34f0f13          	addi	t5,t5,-204 # 0 <addr>
800000d4:	000f0363          	beqz	t5,800000da <trap_vector+0x4e>
800000d8:	8f02                	jr	t5
800000da:	34202f73          	csrr	t5,mcause
800000de:	000f5363          	bgez	t5,800000e4 <handle_exception>
800000e2:	a009                	j	800000e4 <handle_exception>

800000e4 <handle_exception>:
800000e4:	a01d                	j	8000010a <other_interrupts+0x24>

800000e6 <other_interrupts>:
800000e6:	80000fb7          	lui	t6,0x80000
800000ea:	003f8f93          	addi	t6,t6,3 # 80000003 <_end+0xffffdff3>
800000ee:	05ff0463          	beq	t5,t6,80000136 <sft_irq_handler>
800000f2:	80000fb7          	lui	t6,0x80000
800000f6:	007f8f93          	addi	t6,t6,7 # 80000007 <_end+0xffffdff7>
800000fa:	05ff0a63          	beq	t5,t6,8000014e <tmr_irq_handler>
800000fe:	80000fb7          	lui	t6,0x80000
80000102:	00bf8f93          	addi	t6,t6,11 # 8000000b <_end+0xffffdffb>
80000106:	01ff0c63          	beq	t5,t6,8000011e <ext_irq_handler>
8000010a:	5391e193          	ori	gp,gp,1337

8000010e <write_tohost>:
8000010e:	4521                	li	a0,8
80000110:	30052073          	csrs	mstatus,a0
80000114:	00001f17          	auipc	t5,0x1
80000118:	ee3f2623          	sw	gp,-276(t5) # 80001000 <tohost>
8000011c:	bfcd                	j	8000010e <write_tohost>

8000011e <ext_irq_handler>:
8000011e:	00002517          	auipc	a0,0x2
80000122:	ee250513          	addi	a0,a0,-286 # 80002000 <test_trap_data>
80000126:	00052f03          	lw	t5,0(a0)
8000012a:	00452f83          	lw	t6,4(a0)
8000012e:	34002573          	csrr	a0,mscratch
80000132:	30200073          	mret

80000136 <sft_irq_handler>:
80000136:	00002517          	auipc	a0,0x2
8000013a:	eca50513          	addi	a0,a0,-310 # 80002000 <test_trap_data>
8000013e:	00052f03          	lw	t5,0(a0)
80000142:	00452f83          	lw	t6,4(a0)
80000146:	34002573          	csrr	a0,mscratch
8000014a:	30200073          	mret

8000014e <tmr_irq_handler>:
8000014e:	00002517          	auipc	a0,0x2
80000152:	eb250513          	addi	a0,a0,-334 # 80002000 <test_trap_data>
80000156:	00052f03          	lw	t5,0(a0)
8000015a:	00452f83          	lw	t6,4(a0)
8000015e:	34002573          	csrr	a0,mscratch
80000162:	30200073          	mret

80000166 <ifetch_error_handler>:
80000166:	00002517          	auipc	a0,0x2
8000016a:	e9a50513          	addi	a0,a0,-358 # 80002000 <test_trap_data>
8000016e:	00052f03          	lw	t5,0(a0)
80000172:	00452f83          	lw	t6,4(a0)
80000176:	34302573          	csrr	a0,mbadaddr
8000017a:	34002573          	csrr	a0,mscratch
8000017e:	30200073          	mret

80000182 <load_error_handler>:
80000182:	00002517          	auipc	a0,0x2
80000186:	e7e50513          	addi	a0,a0,-386 # 80002000 <test_trap_data>
8000018a:	00052f03          	lw	t5,0(a0)
8000018e:	00452f83          	lw	t6,4(a0)
80000192:	34302573          	csrr	a0,mbadaddr
80000196:	34002573          	csrr	a0,mscratch
8000019a:	30200073          	mret

8000019e <store_error_handler>:
8000019e:	00002517          	auipc	a0,0x2
800001a2:	e6250513          	addi	a0,a0,-414 # 80002000 <test_trap_data>
800001a6:	00052f03          	lw	t5,0(a0)
800001aa:	00452f83          	lw	t6,4(a0)
800001ae:	34302573          	csrr	a0,mbadaddr
800001b2:	34002573          	csrr	a0,mscratch
800001b6:	30200073          	mret

800001ba <reset_vector>:
800001ba:	00000f13          	li	t5,0
800001be:	00000f93          	li	t6,0
800001c2:	f1402573          	csrr	a0,mhartid
800001c6:	e101                	bnez	a0,800001c6 <reset_vector+0xc>
800001c8:	4181                	li	gp,0
800001ca:	00000297          	auipc	t0,0x0
800001ce:	ec228293          	addi	t0,t0,-318 # 8000008c <trap_vector>
800001d2:	4521                	li	a0,8
800001d4:	30052073          	csrs	mstatus,a0
800001d8:	fff00513          	li	a0,-1
800001dc:	30452073          	csrs	mie,a0
800001e0:	30529073          	csrw	mtvec,t0

800001e4 <post_mtvec>:
800001e4:	80000297          	auipc	t0,0x80000
800001e8:	e1c28293          	addi	t0,t0,-484 # 0 <addr>
800001ec:	00028e63          	beqz	t0,80000208 <post_mtvec+0x24>
800001f0:	10529073          	csrw	stvec,t0
800001f4:	0000b2b7          	lui	t0,0xb
800001f8:	10928293          	addi	t0,t0,265 # b109 <others+0xafff>
800001fc:	30229073          	csrw	medeleg,t0
80000200:	30202373          	csrr	t1,medeleg
80000204:	ee6290e3          	bne	t0,t1,800000e4 <handle_exception>
80000208:	30005073          	csrwi	mstatus,0
8000020c:	08000513          	li	a0,128
80000210:	30052073          	csrs	mstatus,a0
80000214:	00002537          	lui	a0,0x2
80000218:	80050513          	addi	a0,a0,-2048 # 1800 <others+0x16f6>
8000021c:	30052073          	csrs	mstatus,a0
80000220:	00000297          	auipc	t0,0x0
80000224:	01428293          	addi	t0,t0,20 # 80000234 <test_1>
80000228:	34129073          	csrw	mepc,t0
8000022c:	f1402573          	csrr	a0,mhartid
80000230:	30200073          	mret

80000234 <test_1>:
80000234:	6091                	lui	ra,0x4
80000236:	0000af03          	lw	t5,0(ra) # 4000 <others+0x3ef6>
8000023a:	4e81                	li	t4,0
8000023c:	4185                	li	gp,1
8000023e:	53df1be3          	bne	t5,t4,80000f74 <fail>

80000242 <test_2>:
80000242:	6091                	lui	ra,0x4
80000244:	0040af03          	lw	t5,4(ra) # 4004 <others+0x3efa>
80000248:	4e81                	li	t4,0
8000024a:	4189                	li	gp,2
8000024c:	53df14e3          	bne	t5,t4,80000f74 <fail>

80000250 <test_3>:
80000250:	6091                	lui	ra,0x4
80000252:	0080af03          	lw	t5,8(ra) # 4008 <others+0x3efe>
80000256:	4e81                	li	t4,0
80000258:	418d                	li	gp,3
8000025a:	51df1de3          	bne	t5,t4,80000f74 <fail>

8000025e <test_4>:
8000025e:	6091                	lui	ra,0x4
80000260:	00c0af03          	lw	t5,12(ra) # 400c <others+0x3f02>
80000264:	4e81                	li	t4,0
80000266:	4191                	li	gp,4
80000268:	51df16e3          	bne	t5,t4,80000f74 <fail>

8000026c <test_5>:
8000026c:	6091                	lui	ra,0x4
8000026e:	0100af03          	lw	t5,16(ra) # 4010 <others+0x3f06>
80000272:	4e81                	li	t4,0
80000274:	4195                	li	gp,5
80000276:	4fdf1fe3          	bne	t5,t4,80000f74 <fail>

8000027a <test_6>:
8000027a:	6091                	lui	ra,0x4
8000027c:	0140af03          	lw	t5,20(ra) # 4014 <others+0x3f0a>
80000280:	4e81                	li	t4,0
80000282:	4199                	li	gp,6
80000284:	4fdf18e3          	bne	t5,t4,80000f74 <fail>

80000288 <test_7>:
80000288:	6091                	lui	ra,0x4
8000028a:	0180af03          	lw	t5,24(ra) # 4018 <others+0x3f0e>
8000028e:	4e81                	li	t4,0
80000290:	419d                	li	gp,7
80000292:	4fdf11e3          	bne	t5,t4,80000f74 <fail>

80000296 <test_8>:
80000296:	6091                	lui	ra,0x4
80000298:	01c0af03          	lw	t5,28(ra) # 401c <others+0x3f12>
8000029c:	4e81                	li	t4,0
8000029e:	41a1                	li	gp,8
800002a0:	4ddf1ae3          	bne	t5,t4,80000f74 <fail>

800002a4 <test_10>:
800002a4:	6091                	lui	ra,0x4
800002a6:	fff00f13          	li	t5,-1
800002aa:	01e0a023          	sw	t5,0(ra) # 4000 <others+0x3ef6>
800002ae:	0000af03          	lw	t5,0(ra)
800002b2:	fff00e93          	li	t4,-1
800002b6:	41a9                	li	gp,10
800002b8:	4bdf1ee3          	bne	t5,t4,80000f74 <fail>

800002bc <test_11>:
800002bc:	6091                	lui	ra,0x4
800002be:	aaaabf37          	lui	t5,0xaaaab
800002c2:	aaaf0f13          	addi	t5,t5,-1366 # aaaaaaaa <_end+0x2aaa8a9a>
800002c6:	01e0a023          	sw	t5,0(ra) # 4000 <others+0x3ef6>
800002ca:	0000af03          	lw	t5,0(ra)
800002ce:	aaaabeb7          	lui	t4,0xaaaab
800002d2:	aaae8e93          	addi	t4,t4,-1366 # aaaaaaaa <_end+0x2aaa8a9a>
800002d6:	41ad                	li	gp,11
800002d8:	49df1ee3          	bne	t5,t4,80000f74 <fail>

800002dc <test_12>:
800002dc:	6091                	lui	ra,0x4
800002de:	55555f37          	lui	t5,0x55555
800002e2:	555f0f13          	addi	t5,t5,1365 # 55555555 <others+0x5555544b>
800002e6:	01e0a023          	sw	t5,0(ra) # 4000 <others+0x3ef6>
800002ea:	0000af03          	lw	t5,0(ra)
800002ee:	55555eb7          	lui	t4,0x55555
800002f2:	555e8e93          	addi	t4,t4,1365 # 55555555 <others+0x5555544b>
800002f6:	41b1                	li	gp,12
800002f8:	47df1ee3          	bne	t5,t4,80000f74 <fail>

800002fc <test_13>:
800002fc:	6091                	lui	ra,0x4
800002fe:	4f01                	li	t5,0
80000300:	01e0a023          	sw	t5,0(ra) # 4000 <others+0x3ef6>
80000304:	0000af03          	lw	t5,0(ra)
80000308:	4e81                	li	t4,0
8000030a:	41b5                	li	gp,13
8000030c:	47df14e3          	bne	t5,t4,80000f74 <fail>

80000310 <test_20>:
80000310:	4081                	li	ra,0
80000312:	fff00f13          	li	t5,-1
80000316:	11e0a023          	sw	t5,256(ra)
8000031a:	1000af03          	lw	t5,256(ra)
8000031e:	4e85                	li	t4,1
80000320:	41d1                	li	gp,20
80000322:	45df19e3          	bne	t5,t4,80000f74 <fail>

80000326 <test_21>:
80000326:	4081                	li	ra,0
80000328:	aaaabf37          	lui	t5,0xaaaab
8000032c:	aaaf0f13          	addi	t5,t5,-1366 # aaaaaaaa <_end+0x2aaa8a9a>
80000330:	11e0a023          	sw	t5,256(ra)
80000334:	1000af03          	lw	t5,256(ra)
80000338:	4e81                	li	t4,0
8000033a:	41d5                	li	gp,21
8000033c:	43df1ce3          	bne	t5,t4,80000f74 <fail>

80000340 <test_22>:
80000340:	4081                	li	ra,0
80000342:	55555f37          	lui	t5,0x55555
80000346:	555f0f13          	addi	t5,t5,1365 # 55555555 <others+0x5555544b>
8000034a:	11e0a023          	sw	t5,256(ra)
8000034e:	1000af03          	lw	t5,256(ra)
80000352:	4e85                	li	t4,1
80000354:	41d9                	li	gp,22
80000356:	41df1fe3          	bne	t5,t4,80000f74 <fail>

8000035a <test_23>:
8000035a:	4081                	li	ra,0
8000035c:	4f01                	li	t5,0
8000035e:	11e0a023          	sw	t5,256(ra)
80000362:	1000af03          	lw	t5,256(ra)
80000366:	4e81                	li	t4,0
80000368:	41dd                	li	gp,23
8000036a:	41df15e3          	bne	t5,t4,80000f74 <fail>

8000036e <test_dram_dbusaccess>:
8000036e:	6291                	lui	t0,0x4
80000370:	aaaab337          	lui	t1,0xaaaab
80000374:	aaa30313          	addi	t1,t1,-1366 # aaaaaaaa <_end+0x2aaa8a9a>
80000378:	0062a023          	sw	t1,0(t0) # 4000 <others+0x3ef6>
8000037c:	0142a303          	lw	t1,20(t0)
80000380:	00035563          	bgez	t1,8000038a <test_dram_dbusaccess+0x1c>
80000384:	41f9                	li	gp,30
80000386:	3ef0006f          	j	80000f74 <fail>
8000038a:	4321                	li	t1,8
8000038c:	4ea9                	li	t4,10
8000038e:	0062a223          	sw	t1,4(t0)
80000392:	0142a303          	lw	t1,20(t0)
80000396:	1efd                	addi	t4,t4,-1
80000398:	fe0ec6e3          	bltz	t4,80000384 <test_dram_dbusaccess+0x16>
8000039c:	fe034be3          	bltz	t1,80000392 <test_dram_dbusaccess+0x24>
800003a0:	6291                	lui	t0,0x4
800003a2:	0142a303          	lw	t1,20(t0) # 4014 <others+0x3f0a>
800003a6:	00035563          	bgez	t1,800003b0 <test_dram_dbusaccess+0x42>
800003aa:	41fd                	li	gp,31
800003ac:	3c90006f          	j	80000f74 <fail>
800003b0:	4311                	li	t1,4
800003b2:	4ea9                	li	t4,10
800003b4:	0062a223          	sw	t1,4(t0)
800003b8:	0142a303          	lw	t1,20(t0)
800003bc:	1efd                	addi	t4,t4,-1
800003be:	fe0ec6e3          	bltz	t4,800003aa <test_dram_dbusaccess+0x3c>
800003c2:	fe034be3          	bltz	t1,800003b8 <test_dram_dbusaccess+0x4a>
800003c6:	0082af83          	lw	t6,8(t0)
800003ca:	aaaabeb7          	lui	t4,0xaaaab
800003ce:	aaae8e93          	addi	t4,t4,-1366 # aaaaaaaa <_end+0x2aaa8a9a>
800003d2:	41fd                	li	gp,31
800003d4:	3bdf90e3          	bne	t6,t4,80000f74 <fail>
800003d8:	00c2af83          	lw	t6,12(t0)
800003dc:	4e81                	li	t4,0
800003de:	39df9be3          	bne	t6,t4,80000f74 <fail>
800003e2:	6291                	lui	t0,0x4
800003e4:	55555337          	lui	t1,0x55555
800003e8:	55530313          	addi	t1,t1,1365 # 55555555 <others+0x5555544b>
800003ec:	0062a023          	sw	t1,0(t0) # 4000 <others+0x3ef6>
800003f0:	0142a303          	lw	t1,20(t0)
800003f4:	00035663          	bgez	t1,80000400 <test_dram_dbusaccess+0x92>
800003f8:	02000193          	li	gp,32
800003fc:	3790006f          	j	80000f74 <fail>
80000400:	4361                	li	t1,24
80000402:	4ea9                	li	t4,10
80000404:	0062a223          	sw	t1,4(t0)
80000408:	0142a303          	lw	t1,20(t0)
8000040c:	1efd                	addi	t4,t4,-1
8000040e:	fe0ec5e3          	bltz	t4,800003f8 <test_dram_dbusaccess+0x8a>
80000412:	fe034be3          	bltz	t1,80000408 <test_dram_dbusaccess+0x9a>
80000416:	6291                	lui	t0,0x4
80000418:	fff00313          	li	t1,-1
8000041c:	0062a023          	sw	t1,0(t0) # 4000 <others+0x3ef6>
80000420:	0142a303          	lw	t1,20(t0)
80000424:	00035663          	bgez	t1,80000430 <test_dram_dbusaccess+0xc2>
80000428:	02100193          	li	gp,33
8000042c:	3490006f          	j	80000f74 <fail>
80000430:	02800313          	li	t1,40
80000434:	4ea9                	li	t4,10
80000436:	0062a223          	sw	t1,4(t0)
8000043a:	0142a303          	lw	t1,20(t0)
8000043e:	1efd                	addi	t4,t4,-1
80000440:	fe0ec4e3          	bltz	t4,80000428 <test_dram_dbusaccess+0xba>
80000444:	fe034be3          	bltz	t1,8000043a <test_dram_dbusaccess+0xcc>
80000448:	6291                	lui	t0,0x4
8000044a:	0142a303          	lw	t1,20(t0) # 4014 <others+0x3f0a>
8000044e:	00035663          	bgez	t1,8000045a <test_dram_dbusaccess+0xec>
80000452:	02100193          	li	gp,33
80000456:	31f0006f          	j	80000f74 <fail>
8000045a:	4351                	li	t1,20
8000045c:	4ea9                	li	t4,10
8000045e:	0062a223          	sw	t1,4(t0)
80000462:	0142a303          	lw	t1,20(t0)
80000466:	1efd                	addi	t4,t4,-1
80000468:	fe0ec5e3          	bltz	t4,80000452 <test_dram_dbusaccess+0xe4>
8000046c:	fe034be3          	bltz	t1,80000462 <test_dram_dbusaccess+0xf4>
80000470:	0082af83          	lw	t6,8(t0)
80000474:	55555eb7          	lui	t4,0x55555
80000478:	555e8e93          	addi	t4,t4,1365 # 55555555 <others+0x5555544b>
8000047c:	02100193          	li	gp,33
80000480:	2fdf9ae3          	bne	t6,t4,80000f74 <fail>
80000484:	00c2af83          	lw	t6,12(t0)
80000488:	4ec1                	li	t4,16
8000048a:	2fdf95e3          	bne	t6,t4,80000f74 <fail>
8000048e:	6291                	lui	t0,0x4
80000490:	0142a303          	lw	t1,20(t0) # 4014 <others+0x3f0a>
80000494:	00035663          	bgez	t1,800004a0 <test_dram_dbusaccess+0x132>
80000498:	02200193          	li	gp,34
8000049c:	2d90006f          	j	80000f74 <fail>
800004a0:	02400313          	li	t1,36
800004a4:	4ea9                	li	t4,10
800004a6:	0062a223          	sw	t1,4(t0)
800004aa:	0142a303          	lw	t1,20(t0)
800004ae:	1efd                	addi	t4,t4,-1
800004b0:	fe0ec4e3          	bltz	t4,80000498 <test_dram_dbusaccess+0x12a>
800004b4:	fe034be3          	bltz	t1,800004aa <test_dram_dbusaccess+0x13c>
800004b8:	0082af83          	lw	t6,8(t0)
800004bc:	fff00e93          	li	t4,-1
800004c0:	02200193          	li	gp,34
800004c4:	2bdf98e3          	bne	t6,t4,80000f74 <fail>
800004c8:	00c2af83          	lw	t6,12(t0)
800004cc:	02000e93          	li	t4,32
800004d0:	2bdf92e3          	bne	t6,t4,80000f74 <fail>

800004d4 <test_40>:
800004d4:	4081                	li	ra,0
800004d6:	4000af03          	lw	t5,1024(ra)
800004da:	aaaabeb7          	lui	t4,0xaaaab
800004de:	aaae8e93          	addi	t4,t4,-1366 # aaaaaaaa <_end+0x2aaa8a9a>
800004e2:	02800193          	li	gp,40
800004e6:	29df17e3          	bne	t5,t4,80000f74 <fail>

800004ea <test_41>:
800004ea:	4081                	li	ra,0
800004ec:	4040af03          	lw	t5,1028(ra)
800004f0:	55555eb7          	lui	t4,0x55555
800004f4:	555e8e93          	addi	t4,t4,1365 # 55555555 <others+0x5555544b>
800004f8:	02900193          	li	gp,41
800004fc:	27df1ce3          	bne	t5,t4,80000f74 <fail>

80000500 <test_42>:
80000500:	4081                	li	ra,0
80000502:	4080af03          	lw	t5,1032(ra)
80000506:	fff00e93          	li	t4,-1
8000050a:	02a00193          	li	gp,42
8000050e:	27df13e3          	bne	t5,t4,80000f74 <fail>

80000512 <test_50>:
80000512:	4081                	li	ra,0
80000514:	55555f37          	lui	t5,0x55555
80000518:	555f0f13          	addi	t5,t5,1365 # 55555555 <others+0x5555544b>
8000051c:	41e0a023          	sw	t5,1024(ra)
80000520:	4000af03          	lw	t5,1024(ra)
80000524:	55555eb7          	lui	t4,0x55555
80000528:	555e8e93          	addi	t4,t4,1365 # 55555555 <others+0x5555544b>
8000052c:	03200193          	li	gp,50
80000530:	25df12e3          	bne	t5,t4,80000f74 <fail>

80000534 <test_51>:
80000534:	4081                	li	ra,0
80000536:	aaaabf37          	lui	t5,0xaaaab
8000053a:	aaaf0f13          	addi	t5,t5,-1366 # aaaaaaaa <_end+0x2aaa8a9a>
8000053e:	41e0a223          	sw	t5,1028(ra)
80000542:	4040af03          	lw	t5,1028(ra)
80000546:	aaaabeb7          	lui	t4,0xaaaab
8000054a:	aaae8e93          	addi	t4,t4,-1366 # aaaaaaaa <_end+0x2aaa8a9a>
8000054e:	03300193          	li	gp,51
80000552:	23df11e3          	bne	t5,t4,80000f74 <fail>

80000556 <test_52>:
80000556:	4081                	li	ra,0
80000558:	4f01                	li	t5,0
8000055a:	41e0a423          	sw	t5,1032(ra)
8000055e:	4080af03          	lw	t5,1032(ra)
80000562:	4e81                	li	t4,0
80000564:	03400193          	li	gp,52
80000568:	21df16e3          	bne	t5,t4,80000f74 <fail>
8000056c:	6291                	lui	t0,0x4
8000056e:	0142a303          	lw	t1,20(t0) # 4014 <others+0x3f0a>
80000572:	00035663          	bgez	t1,8000057e <test_52+0x28>
80000576:	03c00193          	li	gp,60
8000057a:	1fb0006f          	j	80000f74 <fail>
8000057e:	02400313          	li	t1,36
80000582:	4ea9                	li	t4,10
80000584:	0062a223          	sw	t1,4(t0)
80000588:	0142a303          	lw	t1,20(t0)
8000058c:	1efd                	addi	t4,t4,-1
8000058e:	fe0ec4e3          	bltz	t4,80000576 <test_52+0x20>
80000592:	fe034be3          	bltz	t1,80000588 <test_52+0x32>
80000596:	0082af83          	lw	t6,8(t0)
8000059a:	4e81                	li	t4,0
8000059c:	03c00193          	li	gp,60
800005a0:	1ddf9ae3          	bne	t6,t4,80000f74 <fail>
800005a4:	00c2af83          	lw	t6,12(t0)
800005a8:	02000e93          	li	t4,32
800005ac:	1ddf94e3          	bne	t6,t4,80000f74 <fail>
800005b0:	6291                	lui	t0,0x4
800005b2:	0142a303          	lw	t1,20(t0) # 4014 <others+0x3f0a>
800005b6:	00035663          	bgez	t1,800005c2 <test_52+0x6c>
800005ba:	03d00193          	li	gp,61
800005be:	1b70006f          	j	80000f74 <fail>
800005c2:	4351                	li	t1,20
800005c4:	4ea9                	li	t4,10
800005c6:	0062a223          	sw	t1,4(t0)
800005ca:	0142a303          	lw	t1,20(t0)
800005ce:	1efd                	addi	t4,t4,-1
800005d0:	fe0ec5e3          	bltz	t4,800005ba <test_52+0x64>
800005d4:	fe034be3          	bltz	t1,800005ca <test_52+0x74>
800005d8:	0082af83          	lw	t6,8(t0)
800005dc:	aaaabeb7          	lui	t4,0xaaaab
800005e0:	aaae8e93          	addi	t4,t4,-1366 # aaaaaaaa <_end+0x2aaa8a9a>
800005e4:	03d00193          	li	gp,61
800005e8:	19df96e3          	bne	t6,t4,80000f74 <fail>
800005ec:	00c2af83          	lw	t6,12(t0)
800005f0:	4ec1                	li	t4,16
800005f2:	19df91e3          	bne	t6,t4,80000f74 <fail>
800005f6:	6291                	lui	t0,0x4
800005f8:	0142a303          	lw	t1,20(t0) # 4014 <others+0x3f0a>
800005fc:	00035663          	bgez	t1,80000608 <test_52+0xb2>
80000600:	03e00193          	li	gp,62
80000604:	1710006f          	j	80000f74 <fail>
80000608:	4311                	li	t1,4
8000060a:	4ea9                	li	t4,10
8000060c:	0062a223          	sw	t1,4(t0)
80000610:	0142a303          	lw	t1,20(t0)
80000614:	1efd                	addi	t4,t4,-1
80000616:	fe0ec5e3          	bltz	t4,80000600 <test_52+0xaa>
8000061a:	fe034be3          	bltz	t1,80000610 <test_52+0xba>
8000061e:	0082af83          	lw	t6,8(t0)
80000622:	55555eb7          	lui	t4,0x55555
80000626:	555e8e93          	addi	t4,t4,1365 # 55555555 <others+0x5555544b>
8000062a:	03e00193          	li	gp,62
8000062e:	15df93e3          	bne	t6,t4,80000f74 <fail>
80000632:	00c2af83          	lw	t6,12(t0)
80000636:	4e81                	li	t4,0
80000638:	13df9ee3          	bne	t6,t4,80000f74 <fail>

8000063c <test_dbus_reset>:
8000063c:	6291                	lui	t0,0x4
8000063e:	0142a303          	lw	t1,20(t0) # 4014 <others+0x3f0a>
80000642:	00035663          	bgez	t1,8000064e <test_dbus_reset+0x12>
80000646:	04600193          	li	gp,70
8000064a:	12b0006f          	j	80000f74 <fail>
8000064e:	10400313          	li	t1,260
80000652:	4ea9                	li	t4,10
80000654:	0062a223          	sw	t1,4(t0)
80000658:	0142a303          	lw	t1,20(t0)
8000065c:	1efd                	addi	t4,t4,-1
8000065e:	fe0ec4e3          	bltz	t4,80000646 <test_dbus_reset+0xa>
80000662:	fe034be3          	bltz	t1,80000658 <test_dbus_reset+0x1c>
80000666:	0082af83          	lw	t6,8(t0)
8000066a:	4e81                	li	t4,0
8000066c:	04600193          	li	gp,70
80000670:	11df92e3          	bne	t6,t4,80000f74 <fail>
80000674:	00c2af83          	lw	t6,12(t0)
80000678:	10000e93          	li	t4,256
8000067c:	0fdf9ce3          	bne	t6,t4,80000f74 <fail>
80000680:	6291                	lui	t0,0x4
80000682:	0142a303          	lw	t1,20(t0) # 4014 <others+0x3f0a>
80000686:	00035663          	bgez	t1,80000692 <test_dbus_reset+0x56>
8000068a:	04700193          	li	gp,71
8000068e:	0e70006f          	j	80000f74 <fail>
80000692:	11400313          	li	t1,276
80000696:	4ea9                	li	t4,10
80000698:	0062a223          	sw	t1,4(t0)
8000069c:	0142a303          	lw	t1,20(t0)
800006a0:	1efd                	addi	t4,t4,-1
800006a2:	fe0ec4e3          	bltz	t4,8000068a <test_dbus_reset+0x4e>
800006a6:	fe034be3          	bltz	t1,8000069c <test_dbus_reset+0x60>
800006aa:	0082af83          	lw	t6,8(t0)
800006ae:	00002eb7          	lui	t4,0x2
800006b2:	821e8e93          	addi	t4,t4,-2015 # 1821 <others+0x1717>
800006b6:	04700193          	li	gp,71
800006ba:	0bdf9de3          	bne	t6,t4,80000f74 <fail>
800006be:	00c2af83          	lw	t6,12(t0)
800006c2:	11000e93          	li	t4,272
800006c6:	0bdf97e3          	bne	t6,t4,80000f74 <fail>
800006ca:	6291                	lui	t0,0x4
800006cc:	0142a303          	lw	t1,20(t0) # 4014 <others+0x3f0a>
800006d0:	00035663          	bgez	t1,800006dc <test_dbus_reset+0xa0>
800006d4:	04800193          	li	gp,72
800006d8:	09d0006f          	j	80000f74 <fail>
800006dc:	1c400313          	li	t1,452
800006e0:	4ea9                	li	t4,10
800006e2:	0062a223          	sw	t1,4(t0)
800006e6:	0142a303          	lw	t1,20(t0)
800006ea:	1efd                	addi	t4,t4,-1
800006ec:	fe0ec4e3          	bltz	t4,800006d4 <test_dbus_reset+0x98>
800006f0:	fe034be3          	bltz	t1,800006e6 <test_dbus_reset+0xaa>
800006f4:	0082af83          	lw	t6,8(t0)
800006f8:	4e81                	li	t4,0
800006fa:	04800193          	li	gp,72
800006fe:	07df9be3          	bne	t6,t4,80000f74 <fail>
80000702:	00c2af83          	lw	t6,12(t0)
80000706:	1c000e93          	li	t4,448
8000070a:	07df95e3          	bne	t6,t4,80000f74 <fail>

8000070e <test_haltnot>:
8000070e:	4281                	li	t0,0
80000710:	4301                	li	t1,0
80000712:	1062a623          	sw	t1,268(t0)
80000716:	6291                	lui	t0,0x4
80000718:	0142a303          	lw	t1,20(t0) # 4014 <others+0x3f0a>
8000071c:	00035663          	bgez	t1,80000728 <test_haltnot+0x1a>
80000720:	05000193          	li	gp,80
80000724:	0510006f          	j	80000f74 <fail>
80000728:	10500313          	li	t1,261
8000072c:	4ea9                	li	t4,10
8000072e:	0062a223          	sw	t1,4(t0)
80000732:	0142a303          	lw	t1,20(t0)
80000736:	1efd                	addi	t4,t4,-1
80000738:	fe0ec4e3          	bltz	t4,80000720 <test_haltnot+0x12>
8000073c:	fe034be3          	bltz	t1,80000732 <test_haltnot+0x24>
80000740:	0082af83          	lw	t6,8(t0)
80000744:	4e81                	li	t4,0
80000746:	05000193          	li	gp,80
8000074a:	03df95e3          	bne	t6,t4,80000f74 <fail>
8000074e:	00c2af83          	lw	t6,12(t0)
80000752:	10100e93          	li	t4,257
80000756:	01df9fe3          	bne	t6,t4,80000f74 <fail>
8000075a:	6291                	lui	t0,0x4
8000075c:	0142a303          	lw	t1,20(t0) # 4014 <others+0x3f0a>
80000760:	00035663          	bgez	t1,8000076c <test_haltnot+0x5e>
80000764:	05100193          	li	gp,81
80000768:	00d0006f          	j	80000f74 <fail>
8000076c:	4315                	li	t1,5
8000076e:	4ea9                	li	t4,10
80000770:	0062a223          	sw	t1,4(t0)
80000774:	0142a303          	lw	t1,20(t0)
80000778:	1efd                	addi	t4,t4,-1
8000077a:	fe0ec5e3          	bltz	t4,80000764 <test_haltnot+0x56>
8000077e:	fe034be3          	bltz	t1,80000774 <test_haltnot+0x66>
80000782:	0082af83          	lw	t6,8(t0)
80000786:	55555eb7          	lui	t4,0x55555
8000078a:	555e8e93          	addi	t4,t4,1365 # 55555555 <others+0x5555544b>
8000078e:	05100193          	li	gp,81
80000792:	7fdf9163          	bne	t6,t4,80000f74 <fail>
80000796:	00c2af83          	lw	t6,12(t0)
8000079a:	4e85                	li	t4,1
8000079c:	7ddf9c63          	bne	t6,t4,80000f74 <fail>
800007a0:	6291                	lui	t0,0x4
800007a2:	0142a303          	lw	t1,20(t0) # 4014 <others+0x3f0a>
800007a6:	00035563          	bgez	t1,800007b0 <test_haltnot+0xa2>
800007aa:	05200193          	li	gp,82
800007ae:	a7d9                	j	80000f74 <fail>
800007b0:	4355                	li	t1,21
800007b2:	4ea9                	li	t4,10
800007b4:	0062a223          	sw	t1,4(t0)
800007b8:	0142a303          	lw	t1,20(t0)
800007bc:	1efd                	addi	t4,t4,-1
800007be:	fe0ec6e3          	bltz	t4,800007aa <test_haltnot+0x9c>
800007c2:	fe034be3          	bltz	t1,800007b8 <test_haltnot+0xaa>
800007c6:	0082af83          	lw	t6,8(t0)
800007ca:	aaaabeb7          	lui	t4,0xaaaab
800007ce:	aaae8e93          	addi	t4,t4,-1366 # aaaaaaaa <_end+0x2aaa8a9a>
800007d2:	05200193          	li	gp,82
800007d6:	79df9f63          	bne	t6,t4,80000f74 <fail>
800007da:	00c2af83          	lw	t6,12(t0)
800007de:	4ec5                	li	t4,17
800007e0:	79df9a63          	bne	t6,t4,80000f74 <fail>
800007e4:	6291                	lui	t0,0x4
800007e6:	4301                	li	t1,0
800007e8:	0062a023          	sw	t1,0(t0) # 4000 <others+0x3ef6>
800007ec:	0142a303          	lw	t1,20(t0)
800007f0:	00035563          	bgez	t1,800007fa <test_haltnot+0xec>
800007f4:	05300193          	li	gp,83
800007f8:	afb5                	j	80000f74 <fail>
800007fa:	10900313          	li	t1,265
800007fe:	4ea9                	li	t4,10
80000800:	0062a223          	sw	t1,4(t0)
80000804:	0142a303          	lw	t1,20(t0)
80000808:	1efd                	addi	t4,t4,-1
8000080a:	fe0ec5e3          	bltz	t4,800007f4 <test_haltnot+0xe6>
8000080e:	fe034be3          	bltz	t1,80000804 <test_haltnot+0xf6>
80000812:	6291                	lui	t0,0x4
80000814:	0142a303          	lw	t1,20(t0) # 4014 <others+0x3f0a>
80000818:	00035563          	bgez	t1,80000822 <test_haltnot+0x114>
8000081c:	05400193          	li	gp,84
80000820:	af91                	j	80000f74 <fail>
80000822:	10500313          	li	t1,261
80000826:	4ea9                	li	t4,10
80000828:	0062a223          	sw	t1,4(t0)
8000082c:	0142a303          	lw	t1,20(t0)
80000830:	1efd                	addi	t4,t4,-1
80000832:	fe0ec5e3          	bltz	t4,8000081c <test_haltnot+0x10e>
80000836:	fe034be3          	bltz	t1,8000082c <test_haltnot+0x11e>
8000083a:	0082af83          	lw	t6,8(t0)
8000083e:	4e81                	li	t4,0
80000840:	05400193          	li	gp,84
80000844:	73df9863          	bne	t6,t4,80000f74 <fail>
80000848:	00c2af83          	lw	t6,12(t0)
8000084c:	10100e93          	li	t4,257
80000850:	73df9263          	bne	t6,t4,80000f74 <fail>
80000854:	6291                	lui	t0,0x4
80000856:	4301                	li	t1,0
80000858:	0062a023          	sw	t1,0(t0) # 4000 <others+0x3ef6>
8000085c:	0142a303          	lw	t1,20(t0)
80000860:	00035563          	bgez	t1,8000086a <test_haltnot+0x15c>
80000864:	05500193          	li	gp,85
80000868:	a731                	j	80000f74 <fail>
8000086a:	10800313          	li	t1,264
8000086e:	4ea9                	li	t4,10
80000870:	0062a223          	sw	t1,4(t0)
80000874:	0142a303          	lw	t1,20(t0)
80000878:	1efd                	addi	t4,t4,-1
8000087a:	fe0ec5e3          	bltz	t4,80000864 <test_haltnot+0x156>
8000087e:	fe034be3          	bltz	t1,80000874 <test_haltnot+0x166>
80000882:	6291                	lui	t0,0x4
80000884:	0142a303          	lw	t1,20(t0) # 4014 <others+0x3f0a>
80000888:	00035563          	bgez	t1,80000892 <test_haltnot+0x184>
8000088c:	05600193          	li	gp,86
80000890:	a5d5                	j	80000f74 <fail>
80000892:	10400313          	li	t1,260
80000896:	4ea9                	li	t4,10
80000898:	0062a223          	sw	t1,4(t0)
8000089c:	0142a303          	lw	t1,20(t0)
800008a0:	1efd                	addi	t4,t4,-1
800008a2:	fe0ec5e3          	bltz	t4,8000088c <test_haltnot+0x17e>
800008a6:	fe034be3          	bltz	t1,8000089c <test_haltnot+0x18e>
800008aa:	0082af83          	lw	t6,8(t0)
800008ae:	4e81                	li	t4,0
800008b0:	05600193          	li	gp,86
800008b4:	6ddf9063          	bne	t6,t4,80000f74 <fail>
800008b8:	00c2af83          	lw	t6,12(t0)
800008bc:	10000e93          	li	t4,256
800008c0:	6bdf9a63          	bne	t6,t4,80000f74 <fail>
800008c4:	6291                	lui	t0,0x4
800008c6:	0142a303          	lw	t1,20(t0) # 4014 <others+0x3f0a>
800008ca:	00035563          	bgez	t1,800008d4 <test_haltnot+0x1c6>
800008ce:	05700193          	li	gp,87
800008d2:	a54d                	j	80000f74 <fail>
800008d4:	4311                	li	t1,4
800008d6:	4ea9                	li	t4,10
800008d8:	0062a223          	sw	t1,4(t0)
800008dc:	0142a303          	lw	t1,20(t0)
800008e0:	1efd                	addi	t4,t4,-1
800008e2:	fe0ec6e3          	bltz	t4,800008ce <test_haltnot+0x1c0>
800008e6:	fe034be3          	bltz	t1,800008dc <test_haltnot+0x1ce>
800008ea:	0082af83          	lw	t6,8(t0)
800008ee:	55555eb7          	lui	t4,0x55555
800008f2:	555e8e93          	addi	t4,t4,1365 # 55555555 <others+0x5555544b>
800008f6:	05700193          	li	gp,87
800008fa:	67df9d63          	bne	t6,t4,80000f74 <fail>
800008fe:	00c2af83          	lw	t6,12(t0)
80000902:	4e81                	li	t4,0
80000904:	67df9863          	bne	t6,t4,80000f74 <fail>
80000908:	6291                	lui	t0,0x4
8000090a:	0142a303          	lw	t1,20(t0) # 4014 <others+0x3f0a>
8000090e:	00035563          	bgez	t1,80000918 <test_haltnot+0x20a>
80000912:	05800193          	li	gp,88
80000916:	adb9                	j	80000f74 <fail>
80000918:	4351                	li	t1,20
8000091a:	4ea9                	li	t4,10
8000091c:	0062a223          	sw	t1,4(t0)
80000920:	0142a303          	lw	t1,20(t0)
80000924:	1efd                	addi	t4,t4,-1
80000926:	fe0ec6e3          	bltz	t4,80000912 <test_haltnot+0x204>
8000092a:	fe034be3          	bltz	t1,80000920 <test_haltnot+0x212>
8000092e:	0082af83          	lw	t6,8(t0)
80000932:	aaaabeb7          	lui	t4,0xaaaab
80000936:	aaae8e93          	addi	t4,t4,-1366 # aaaaaaaa <_end+0x2aaa8a9a>
8000093a:	05800193          	li	gp,88
8000093e:	63df9b63          	bne	t6,t4,80000f74 <fail>
80000942:	00c2af83          	lw	t6,12(t0)
80000946:	4ec1                	li	t4,16
80000948:	63df9663          	bne	t6,t4,80000f74 <fail>
8000094c:	6291                	lui	t0,0x4
8000094e:	4301                	li	t1,0
80000950:	0062a023          	sw	t1,0(t0) # 4000 <others+0x3ef6>
80000954:	0142a303          	lw	t1,20(t0)
80000958:	00035563          	bgez	t1,80000962 <test_haltnot+0x254>
8000095c:	05900193          	li	gp,89
80000960:	ad11                	j	80000f74 <fail>
80000962:	10900313          	li	t1,265
80000966:	4ea9                	li	t4,10
80000968:	0062a223          	sw	t1,4(t0)
8000096c:	0142a303          	lw	t1,20(t0)
80000970:	1efd                	addi	t4,t4,-1
80000972:	fe0ec5e3          	bltz	t4,8000095c <test_haltnot+0x24e>
80000976:	fe034be3          	bltz	t1,8000096c <test_haltnot+0x25e>
8000097a:	6291                	lui	t0,0x4
8000097c:	0142a303          	lw	t1,20(t0) # 4014 <others+0x3f0a>
80000980:	00035563          	bgez	t1,8000098a <test_haltnot+0x27c>
80000984:	05a00193          	li	gp,90
80000988:	a3f5                	j	80000f74 <fail>
8000098a:	10400313          	li	t1,260
8000098e:	4ea9                	li	t4,10
80000990:	0062a223          	sw	t1,4(t0)
80000994:	0142a303          	lw	t1,20(t0)
80000998:	1efd                	addi	t4,t4,-1
8000099a:	fe0ec5e3          	bltz	t4,80000984 <test_haltnot+0x276>
8000099e:	fe034be3          	bltz	t1,80000994 <test_haltnot+0x286>
800009a2:	0082af83          	lw	t6,8(t0)
800009a6:	4e81                	li	t4,0
800009a8:	05a00193          	li	gp,90
800009ac:	5ddf9463          	bne	t6,t4,80000f74 <fail>
800009b0:	00c2af83          	lw	t6,12(t0)
800009b4:	10000e93          	li	t4,256
800009b8:	5bdf9e63          	bne	t6,t4,80000f74 <fail>
800009bc:	6291                	lui	t0,0x4
800009be:	4311                	li	t1,4
800009c0:	0062a023          	sw	t1,0(t0) # 4000 <others+0x3ef6>
800009c4:	0142a303          	lw	t1,20(t0)
800009c8:	00035563          	bgez	t1,800009d2 <test_haltnot+0x2c4>
800009cc:	06400193          	li	gp,100
800009d0:	a355                	j	80000f74 <fail>
800009d2:	10800313          	li	t1,264
800009d6:	4ea9                	li	t4,10
800009d8:	0062a223          	sw	t1,4(t0)
800009dc:	0142a303          	lw	t1,20(t0)
800009e0:	1efd                	addi	t4,t4,-1
800009e2:	fe0ec5e3          	bltz	t4,800009cc <test_haltnot+0x2be>
800009e6:	fe034be3          	bltz	t1,800009dc <test_haltnot+0x2ce>
800009ea:	6291                	lui	t0,0x4
800009ec:	0142a303          	lw	t1,20(t0) # 4014 <others+0x3f0a>
800009f0:	00035563          	bgez	t1,800009fa <test_haltnot+0x2ec>
800009f4:	06500193          	li	gp,101
800009f8:	abb5                	j	80000f74 <fail>
800009fa:	10400313          	li	t1,260
800009fe:	4ea9                	li	t4,10
80000a00:	0062a223          	sw	t1,4(t0)
80000a04:	0142a303          	lw	t1,20(t0)
80000a08:	1efd                	addi	t4,t4,-1
80000a0a:	fe0ec5e3          	bltz	t4,800009f4 <test_haltnot+0x2e6>
80000a0e:	fe034be3          	bltz	t1,80000a04 <test_haltnot+0x2f6>
80000a12:	0082af83          	lw	t6,8(t0)
80000a16:	4e91                	li	t4,4
80000a18:	06500193          	li	gp,101
80000a1c:	55df9c63          	bne	t6,t4,80000f74 <fail>
80000a20:	00c2af83          	lw	t6,12(t0)
80000a24:	10000e93          	li	t4,256
80000a28:	55df9663          	bne	t6,t4,80000f74 <fail>
80000a2c:	4281                	li	t0,0
80000a2e:	4301                	li	t1,0
80000a30:	1062a623          	sw	t1,268(t0)
80000a34:	6291                	lui	t0,0x4
80000a36:	0142a303          	lw	t1,20(t0) # 4014 <others+0x3f0a>
80000a3a:	00035563          	bgez	t1,80000a44 <test_haltnot+0x336>
80000a3e:	06600193          	li	gp,102
80000a42:	ab0d                	j	80000f74 <fail>
80000a44:	10400313          	li	t1,260
80000a48:	4ea9                	li	t4,10
80000a4a:	0062a223          	sw	t1,4(t0)
80000a4e:	0142a303          	lw	t1,20(t0)
80000a52:	1efd                	addi	t4,t4,-1
80000a54:	fe0ec5e3          	bltz	t4,80000a3e <test_haltnot+0x330>
80000a58:	fe034be3          	bltz	t1,80000a4e <test_haltnot+0x340>
80000a5c:	0082af83          	lw	t6,8(t0)
80000a60:	4e91                	li	t4,4
80000a62:	06600193          	li	gp,102
80000a66:	51df9763          	bne	t6,t4,80000f74 <fail>
80000a6a:	00c2af83          	lw	t6,12(t0)
80000a6e:	10000e93          	li	t4,256
80000a72:	51df9163          	bne	t6,t4,80000f74 <fail>
80000a76:	6291                	lui	t0,0x4
80000a78:	0142a303          	lw	t1,20(t0) # 4014 <others+0x3f0a>
80000a7c:	00035563          	bgez	t1,80000a86 <test_haltnot+0x378>
80000a80:	06700193          	li	gp,103
80000a84:	a9c5                	j	80000f74 <fail>
80000a86:	4311                	li	t1,4
80000a88:	4ea9                	li	t4,10
80000a8a:	0062a223          	sw	t1,4(t0)
80000a8e:	0142a303          	lw	t1,20(t0)
80000a92:	1efd                	addi	t4,t4,-1
80000a94:	fe0ec6e3          	bltz	t4,80000a80 <test_haltnot+0x372>
80000a98:	fe034be3          	bltz	t1,80000a8e <test_haltnot+0x380>
80000a9c:	0082af83          	lw	t6,8(t0)
80000aa0:	55555eb7          	lui	t4,0x55555
80000aa4:	555e8e93          	addi	t4,t4,1365 # 55555555 <others+0x5555544b>
80000aa8:	06700193          	li	gp,103
80000aac:	4ddf9463          	bne	t6,t4,80000f74 <fail>
80000ab0:	00c2af83          	lw	t6,12(t0)
80000ab4:	4e81                	li	t4,0
80000ab6:	4bdf9f63          	bne	t6,t4,80000f74 <fail>
80000aba:	6291                	lui	t0,0x4
80000abc:	4301                	li	t1,0
80000abe:	0062a023          	sw	t1,0(t0) # 4000 <others+0x3ef6>
80000ac2:	0142a303          	lw	t1,20(t0)
80000ac6:	00035563          	bgez	t1,80000ad0 <test_haltnot+0x3c2>
80000aca:	06800193          	li	gp,104
80000ace:	a15d                	j	80000f74 <fail>
80000ad0:	10900313          	li	t1,265
80000ad4:	4ea9                	li	t4,10
80000ad6:	0062a223          	sw	t1,4(t0)
80000ada:	0142a303          	lw	t1,20(t0)
80000ade:	1efd                	addi	t4,t4,-1
80000ae0:	fe0ec5e3          	bltz	t4,80000aca <test_haltnot+0x3bc>
80000ae4:	fe034be3          	bltz	t1,80000ada <test_haltnot+0x3cc>
80000ae8:	6291                	lui	t0,0x4
80000aea:	0142a303          	lw	t1,20(t0) # 4014 <others+0x3f0a>
80000aee:	00035563          	bgez	t1,80000af8 <test_haltnot+0x3ea>
80000af2:	06900193          	li	gp,105
80000af6:	a9bd                	j	80000f74 <fail>
80000af8:	10500313          	li	t1,261
80000afc:	4ea9                	li	t4,10
80000afe:	0062a223          	sw	t1,4(t0)
80000b02:	0142a303          	lw	t1,20(t0)
80000b06:	1efd                	addi	t4,t4,-1
80000b08:	fe0ec5e3          	bltz	t4,80000af2 <test_haltnot+0x3e4>
80000b0c:	fe034be3          	bltz	t1,80000b02 <test_haltnot+0x3f4>
80000b10:	0082af83          	lw	t6,8(t0)
80000b14:	4e81                	li	t4,0
80000b16:	06900193          	li	gp,105
80000b1a:	45df9d63          	bne	t6,t4,80000f74 <fail>
80000b1e:	00c2af83          	lw	t6,12(t0)
80000b22:	10100e93          	li	t4,257
80000b26:	45df9763          	bne	t6,t4,80000f74 <fail>
80000b2a:	6291                	lui	t0,0x4
80000b2c:	0142a303          	lw	t1,20(t0) # 4014 <others+0x3f0a>
80000b30:	00035563          	bgez	t1,80000b3a <test_haltnot+0x42c>
80000b34:	06a00193          	li	gp,106
80000b38:	a935                	j	80000f74 <fail>
80000b3a:	4315                	li	t1,5
80000b3c:	4ea9                	li	t4,10
80000b3e:	0062a223          	sw	t1,4(t0)
80000b42:	0142a303          	lw	t1,20(t0)
80000b46:	1efd                	addi	t4,t4,-1
80000b48:	fe0ec6e3          	bltz	t4,80000b34 <test_haltnot+0x426>
80000b4c:	fe034be3          	bltz	t1,80000b42 <test_haltnot+0x434>
80000b50:	0082af83          	lw	t6,8(t0)
80000b54:	55555eb7          	lui	t4,0x55555
80000b58:	555e8e93          	addi	t4,t4,1365 # 55555555 <others+0x5555544b>
80000b5c:	06a00193          	li	gp,106
80000b60:	41df9a63          	bne	t6,t4,80000f74 <fail>
80000b64:	00c2af83          	lw	t6,12(t0)
80000b68:	4e85                	li	t4,1
80000b6a:	41df9563          	bne	t6,t4,80000f74 <fail>
80000b6e:	6291                	lui	t0,0x4
80000b70:	4311                	li	t1,4
80000b72:	0062a023          	sw	t1,0(t0) # 4000 <others+0x3ef6>
80000b76:	0142a303          	lw	t1,20(t0)
80000b7a:	00035563          	bgez	t1,80000b84 <test_haltnot+0x476>
80000b7e:	06b00193          	li	gp,107
80000b82:	aecd                	j	80000f74 <fail>
80000b84:	10900313          	li	t1,265
80000b88:	4ea9                	li	t4,10
80000b8a:	0062a223          	sw	t1,4(t0)
80000b8e:	0142a303          	lw	t1,20(t0)
80000b92:	1efd                	addi	t4,t4,-1
80000b94:	fe0ec5e3          	bltz	t4,80000b7e <test_haltnot+0x470>
80000b98:	fe034be3          	bltz	t1,80000b8e <test_haltnot+0x480>
80000b9c:	6291                	lui	t0,0x4
80000b9e:	0142a303          	lw	t1,20(t0) # 4014 <others+0x3f0a>
80000ba2:	00035563          	bgez	t1,80000bac <test_haltnot+0x49e>
80000ba6:	06c00193          	li	gp,108
80000baa:	a6e9                	j	80000f74 <fail>
80000bac:	10400313          	li	t1,260
80000bb0:	4ea9                	li	t4,10
80000bb2:	0062a223          	sw	t1,4(t0)
80000bb6:	0142a303          	lw	t1,20(t0)
80000bba:	1efd                	addi	t4,t4,-1
80000bbc:	fe0ec5e3          	bltz	t4,80000ba6 <test_haltnot+0x498>
80000bc0:	fe034be3          	bltz	t1,80000bb6 <test_haltnot+0x4a8>
80000bc4:	0082af83          	lw	t6,8(t0)
80000bc8:	4e91                	li	t4,4
80000bca:	06c00193          	li	gp,108
80000bce:	3bdf9363          	bne	t6,t4,80000f74 <fail>
80000bd2:	00c2af83          	lw	t6,12(t0)
80000bd6:	10000e93          	li	t4,256
80000bda:	39df9d63          	bne	t6,t4,80000f74 <fail>
80000bde:	6291                	lui	t0,0x4
80000be0:	4301                	li	t1,0
80000be2:	0062a023          	sw	t1,0(t0) # 4000 <others+0x3ef6>
80000be6:	0142a303          	lw	t1,20(t0)
80000bea:	00035563          	bgez	t1,80000bf4 <test_haltnot+0x4e6>
80000bee:	06d00193          	li	gp,109
80000bf2:	a649                	j	80000f74 <fail>
80000bf4:	10800313          	li	t1,264
80000bf8:	4ea9                	li	t4,10
80000bfa:	0062a223          	sw	t1,4(t0)
80000bfe:	0142a303          	lw	t1,20(t0)
80000c02:	1efd                	addi	t4,t4,-1
80000c04:	fe0ec5e3          	bltz	t4,80000bee <test_haltnot+0x4e0>
80000c08:	fe034be3          	bltz	t1,80000bfe <test_haltnot+0x4f0>
80000c0c:	6291                	lui	t0,0x4
80000c0e:	0142a303          	lw	t1,20(t0) # 4014 <others+0x3f0a>
80000c12:	00035563          	bgez	t1,80000c1c <test_haltnot+0x50e>
80000c16:	06e00193          	li	gp,110
80000c1a:	aea9                	j	80000f74 <fail>
80000c1c:	10500313          	li	t1,261
80000c20:	4ea9                	li	t4,10
80000c22:	0062a223          	sw	t1,4(t0)
80000c26:	0142a303          	lw	t1,20(t0)
80000c2a:	1efd                	addi	t4,t4,-1
80000c2c:	fe0ec5e3          	bltz	t4,80000c16 <test_haltnot+0x508>
80000c30:	fe034be3          	bltz	t1,80000c26 <test_haltnot+0x518>
80000c34:	0082af83          	lw	t6,8(t0)
80000c38:	4e81                	li	t4,0
80000c3a:	06e00193          	li	gp,110
80000c3e:	33df9b63          	bne	t6,t4,80000f74 <fail>
80000c42:	00c2af83          	lw	t6,12(t0)
80000c46:	10100e93          	li	t4,257
80000c4a:	33df9563          	bne	t6,t4,80000f74 <fail>

80000c4e <test_120>:
80000c4e:	4081                	li	ra,0
80000c50:	fff00f13          	li	t5,-1
80000c54:	11e0a623          	sw	t5,268(ra)
80000c58:	10c0af03          	lw	t5,268(ra)
80000c5c:	4e85                	li	t4,1
80000c5e:	07800193          	li	gp,120
80000c62:	31df1963          	bne	t5,t4,80000f74 <fail>

80000c66 <test_121>:
80000c66:	4081                	li	ra,0
80000c68:	aaaabf37          	lui	t5,0xaaaab
80000c6c:	aaaf0f13          	addi	t5,t5,-1366 # aaaaaaaa <_end+0x2aaa8a9a>
80000c70:	11e0a623          	sw	t5,268(ra)
80000c74:	10c0af03          	lw	t5,268(ra)
80000c78:	4e81                	li	t4,0
80000c7a:	07900193          	li	gp,121
80000c7e:	2fdf1b63          	bne	t5,t4,80000f74 <fail>

80000c82 <test_122>:
80000c82:	4081                	li	ra,0
80000c84:	55555f37          	lui	t5,0x55555
80000c88:	555f0f13          	addi	t5,t5,1365 # 55555555 <others+0x5555544b>
80000c8c:	11e0a623          	sw	t5,268(ra)
80000c90:	10c0af03          	lw	t5,268(ra)
80000c94:	4e85                	li	t4,1
80000c96:	07a00193          	li	gp,122
80000c9a:	2ddf1d63          	bne	t5,t4,80000f74 <fail>

80000c9e <test_123>:
80000c9e:	4081                	li	ra,0
80000ca0:	4f01                	li	t5,0
80000ca2:	11e0a623          	sw	t5,268(ra)
80000ca6:	10c0af03          	lw	t5,268(ra)
80000caa:	4e81                	li	t4,0
80000cac:	07b00193          	li	gp,123
80000cb0:	2ddf1263          	bne	t5,t4,80000f74 <fail>
80000cb4:	6291                	lui	t0,0x4
80000cb6:	4301                	li	t1,0
80000cb8:	0062a023          	sw	t1,0(t0) # 4000 <others+0x3ef6>
80000cbc:	0142a303          	lw	t1,20(t0)
80000cc0:	00035563          	bgez	t1,80000cca <test_123+0x2c>
80000cc4:	07c00193          	li	gp,124
80000cc8:	a475                	j	80000f74 <fail>
80000cca:	10800313          	li	t1,264
80000cce:	4ea9                	li	t4,10
80000cd0:	0062a223          	sw	t1,4(t0)
80000cd4:	0142a303          	lw	t1,20(t0)
80000cd8:	1efd                	addi	t4,t4,-1
80000cda:	fe0ec5e3          	bltz	t4,80000cc4 <test_123+0x26>
80000cde:	fe034be3          	bltz	t1,80000cd4 <test_123+0x36>
80000ce2:	6291                	lui	t0,0x4
80000ce4:	0142a303          	lw	t1,20(t0) # 4014 <others+0x3f0a>
80000ce8:	00035563          	bgez	t1,80000cf2 <test_123+0x54>
80000cec:	07d00193          	li	gp,125
80000cf0:	a451                	j	80000f74 <fail>
80000cf2:	10400313          	li	t1,260
80000cf6:	4ea9                	li	t4,10
80000cf8:	0062a223          	sw	t1,4(t0)
80000cfc:	0142a303          	lw	t1,20(t0)
80000d00:	1efd                	addi	t4,t4,-1
80000d02:	fe0ec5e3          	bltz	t4,80000cec <test_123+0x4e>
80000d06:	fe034be3          	bltz	t1,80000cfc <test_123+0x5e>
80000d0a:	0082af83          	lw	t6,8(t0)
80000d0e:	4e81                	li	t4,0
80000d10:	07d00193          	li	gp,125
80000d14:	27df9063          	bne	t6,t4,80000f74 <fail>
80000d18:	00c2af83          	lw	t6,12(t0)
80000d1c:	10000e93          	li	t4,256
80000d20:	25df9a63          	bne	t6,t4,80000f74 <fail>

80000d24 <test_debint>:
80000d24:	6291                	lui	t0,0x4
80000d26:	4301                	li	t1,0
80000d28:	0062a023          	sw	t1,0(t0) # 4000 <others+0x3ef6>
80000d2c:	0142a303          	lw	t1,20(t0)
80000d30:	00035563          	bgez	t1,80000d3a <test_debint+0x16>
80000d34:	08200193          	li	gp,130
80000d38:	ac35                	j	80000f74 <fail>
80000d3a:	10a00313          	li	t1,266
80000d3e:	4ea9                	li	t4,10
80000d40:	0062a223          	sw	t1,4(t0)
80000d44:	0142a303          	lw	t1,20(t0)
80000d48:	1efd                	addi	t4,t4,-1
80000d4a:	fe0ec5e3          	bltz	t4,80000d34 <test_debint+0x10>
80000d4e:	fe034be3          	bltz	t1,80000d44 <test_debint+0x20>
80000d52:	6291                	lui	t0,0x4
80000d54:	0142a303          	lw	t1,20(t0) # 4014 <others+0x3f0a>
80000d58:	00035563          	bgez	t1,80000d62 <test_debint+0x3e>
80000d5c:	08300193          	li	gp,131
80000d60:	ac11                	j	80000f74 <fail>
80000d62:	10600313          	li	t1,262
80000d66:	4ea9                	li	t4,10
80000d68:	0062a223          	sw	t1,4(t0)
80000d6c:	0142a303          	lw	t1,20(t0)
80000d70:	1efd                	addi	t4,t4,-1
80000d72:	fe0ec5e3          	bltz	t4,80000d5c <test_debint+0x38>
80000d76:	fe034be3          	bltz	t1,80000d6c <test_debint+0x48>
80000d7a:	0082af83          	lw	t6,8(t0)
80000d7e:	4e81                	li	t4,0
80000d80:	08300193          	li	gp,131
80000d84:	1fdf9863          	bne	t6,t4,80000f74 <fail>
80000d88:	00c2af83          	lw	t6,12(t0)
80000d8c:	10200e93          	li	t4,258
80000d90:	1fdf9263          	bne	t6,t4,80000f74 <fail>
80000d94:	6291                	lui	t0,0x4
80000d96:	4301                	li	t1,0
80000d98:	0062a023          	sw	t1,0(t0) # 4000 <others+0x3ef6>
80000d9c:	0142a303          	lw	t1,20(t0)
80000da0:	00035563          	bgez	t1,80000daa <test_debint+0x86>
80000da4:	08400193          	li	gp,132
80000da8:	a2f1                	j	80000f74 <fail>
80000daa:	10800313          	li	t1,264
80000dae:	4ea9                	li	t4,10
80000db0:	0062a223          	sw	t1,4(t0)
80000db4:	0142a303          	lw	t1,20(t0)
80000db8:	1efd                	addi	t4,t4,-1
80000dba:	fe0ec5e3          	bltz	t4,80000da4 <test_debint+0x80>
80000dbe:	fe034be3          	bltz	t1,80000db4 <test_debint+0x90>
80000dc2:	6291                	lui	t0,0x4
80000dc4:	0142a303          	lw	t1,20(t0) # 4014 <others+0x3f0a>
80000dc8:	00035563          	bgez	t1,80000dd2 <test_debint+0xae>
80000dcc:	08500193          	li	gp,133
80000dd0:	a255                	j	80000f74 <fail>
80000dd2:	10600313          	li	t1,262
80000dd6:	4ea9                	li	t4,10
80000dd8:	0062a223          	sw	t1,4(t0)
80000ddc:	0142a303          	lw	t1,20(t0)
80000de0:	1efd                	addi	t4,t4,-1
80000de2:	fe0ec5e3          	bltz	t4,80000dcc <test_debint+0xa8>
80000de6:	fe034be3          	bltz	t1,80000ddc <test_debint+0xb8>
80000dea:	0082af83          	lw	t6,8(t0)
80000dee:	4e81                	li	t4,0
80000df0:	08500193          	li	gp,133
80000df4:	19df9063          	bne	t6,t4,80000f74 <fail>
80000df8:	00c2af83          	lw	t6,12(t0)
80000dfc:	10200e93          	li	t4,258
80000e00:	17df9a63          	bne	t6,t4,80000f74 <fail>
80000e04:	4281                	li	t0,0
80000e06:	4301                	li	t1,0
80000e08:	1062a023          	sw	t1,256(t0)
80000e0c:	6291                	lui	t0,0x4
80000e0e:	0142a303          	lw	t1,20(t0) # 4014 <others+0x3f0a>
80000e12:	00035563          	bgez	t1,80000e1c <test_debint+0xf8>
80000e16:	08600193          	li	gp,134
80000e1a:	aaa9                	j	80000f74 <fail>
80000e1c:	10400313          	li	t1,260
80000e20:	4ea9                	li	t4,10
80000e22:	0062a223          	sw	t1,4(t0)
80000e26:	0142a303          	lw	t1,20(t0)
80000e2a:	1efd                	addi	t4,t4,-1
80000e2c:	fe0ec5e3          	bltz	t4,80000e16 <test_debint+0xf2>
80000e30:	fe034be3          	bltz	t1,80000e26 <test_debint+0x102>
80000e34:	0082af83          	lw	t6,8(t0)
80000e38:	4e81                	li	t4,0
80000e3a:	08600193          	li	gp,134
80000e3e:	13df9b63          	bne	t6,t4,80000f74 <fail>
80000e42:	00c2af83          	lw	t6,12(t0)
80000e46:	10000e93          	li	t4,256
80000e4a:	13df9563          	bne	t6,t4,80000f74 <fail>

80000e4e <test_dbus_err>:
80000e4e:	6291                	lui	t0,0x4
80000e50:	f0f01337          	lui	t1,0xf0f01
80000e54:	f0f30313          	addi	t1,t1,-241 # f0f00f0f <_end+0x70efeeff>
80000e58:	0062a023          	sw	t1,0(t0) # 4000 <others+0x3ef6>
80000e5c:	4321                	li	t1,8
80000e5e:	0062a223          	sw	t1,4(t0)
80000e62:	0062a223          	sw	t1,4(t0)
80000e66:	4ea9                	li	t4,10
80000e68:	08c00193          	li	gp,140
80000e6c:	0142a303          	lw	t1,20(t0)
80000e70:	1efd                	addi	t4,t4,-1
80000e72:	100ec163          	bltz	t4,80000f74 <fail>
80000e76:	fe031be3          	bnez	t1,80000e6c <test_dbus_err+0x1e>
80000e7a:	00c2af83          	lw	t6,12(t0)
80000e7e:	4ea1                	li	t4,8
80000e80:	0fdf9a63          	bne	t6,t4,80000f74 <fail>

80000e84 <test_dmode>:
80000e84:	4511                	li	a0,4
80000e86:	00000597          	auipc	a1,0x0
80000e8a:	10a58593          	addi	a1,a1,266 # 80000f90 <prog_clrdint>
80000e8e:	40000613          	li	a2,1024
80000e92:	223d                	jal	80000fc0 <copy_code>
80000e94:	6291                	lui	t0,0x4
80000e96:	0142a303          	lw	t1,20(t0) # 4014 <others+0x3f0a>
80000e9a:	00035563          	bgez	t1,80000ea4 <test_dmode+0x20>
80000e9e:	09600193          	li	gp,150
80000ea2:	a8c9                	j	80000f74 <fail>
80000ea4:	4ea9                	li	t4,10
80000ea6:	4301                	li	t1,0
80000ea8:	0062a023          	sw	t1,0(t0)
80000eac:	10a00313          	li	t1,266
80000eb0:	0062a223          	sw	t1,4(t0)
80000eb4:	0142a303          	lw	t1,20(t0)
80000eb8:	1efd                	addi	t4,t4,-1
80000eba:	fe0ec2e3          	bltz	t4,80000e9e <test_dmode+0x1a>
80000ebe:	fe034be3          	bltz	t1,80000eb4 <test_dmode+0x30>
80000ec2:	09700193          	li	gp,151
80000ec6:	537d                	li	t1,-1
80000ec8:	40602c23          	sw	t1,1048(zero) # 418 <others+0x30e>
80000ecc:	41802303          	lw	t1,1048(zero) # 418 <others+0x30e>
80000ed0:	0a030263          	beqz	t1,80000f74 <fail>
80000ed4:	09800193          	li	gp,152
80000ed8:	4381                	li	t2,0
80000eda:	6291                	lui	t0,0x4
80000edc:	537d                	li	t1,-1
80000ede:	0062ac23          	sw	t1,24(t0) # 4018 <others+0x3f0e>
80000ee2:	0385                	addi	t2,t2,1
80000ee4:	0385                	addi	t2,t2,1
80000ee6:	0385                	addi	t2,t2,1
80000ee8:	0385                	addi	t2,t2,1
80000eea:	13f1                	addi	t2,t2,-4
80000eec:	08039463          	bnez	t2,80000f74 <fail>
80000ef0:	09900193          	li	gp,153
80000ef4:	41802303          	lw	t1,1048(zero) # 418 <others+0x30e>
80000ef8:	06031e63          	bnez	t1,80000f74 <fail>

80000efc <test_ebreak>:
80000efc:	0a000193          	li	gp,160
80000f00:	4515                	li	a0,5
80000f02:	00000597          	auipc	a1,0x0
80000f06:	09e58593          	addi	a1,a1,158 # 80000fa0 <prog_clrdint_and_halt>
80000f0a:	40000613          	li	a2,1024
80000f0e:	284d                	jal	80000fc0 <copy_code>
80000f10:	0a100193          	li	gp,161
80000f14:	4381                	li	t2,0
80000f16:	6291                	lui	t0,0x4
80000f18:	0002ac23          	sw	zero,24(t0) # 4018 <others+0x3f0e>
80000f1c:	0a200193          	li	gp,162
80000f20:	6291                	lui	t0,0x4
80000f22:	0142a303          	lw	t1,20(t0) # 4014 <others+0x3f0a>
80000f26:	00035363          	bgez	t1,80000f2c <test_ebreak+0x30>
80000f2a:	a0a9                	j	80000f74 <fail>
80000f2c:	4ea9                	li	t4,10
80000f2e:	4301                	li	t1,0
80000f30:	0062a023          	sw	t1,0(t0)
80000f34:	10a00313          	li	t1,266
80000f38:	0062a223          	sw	t1,4(t0)
80000f3c:	0142a303          	lw	t1,20(t0)
80000f40:	1efd                	addi	t4,t4,-1
80000f42:	fe0ec4e3          	bltz	t4,80000f2a <test_ebreak+0x2e>
80000f46:	fe034be3          	bltz	t1,80000f3c <test_ebreak+0x40>
80000f4a:	0a300193          	li	gp,163
80000f4e:	537d                	li	t1,-1
80000f50:	0062ae23          	sw	t1,28(t0)
80000f54:	0a400193          	li	gp,164
80000f58:	537d                	li	t1,-1
80000f5a:	0062ac23          	sw	t1,24(t0)
80000f5e:	4381                	li	t2,0
80000f60:	9002                	ebreak
80000f62:	0385                	addi	t2,t2,1
80000f64:	0385                	addi	t2,t2,1
80000f66:	0385                	addi	t2,t2,1
80000f68:	0385                	addi	t2,t2,1
80000f6a:	13f1                	addi	t2,t2,-4
80000f6c:	00039463          	bnez	t2,80000f74 <fail>
80000f70:	00301963          	bne	zero,gp,80000f82 <pass>

80000f74 <fail>:
80000f74:	00018063          	beqz	gp,80000f74 <fail>
80000f78:	0186                	slli	gp,gp,0x1
80000f7a:	0011e193          	ori	gp,gp,1
80000f7e:	00000073          	ecall

80000f82 <pass>:
80000f82:	4185                	li	gp,1
80000f84:	00000073          	ecall
80000f88:	00000013          	nop
80000f8c:	00000013          	nop

80000f90 <prog_clrdint>:
80000f90:	4281                	li	t0,0
80000f92:	1002a023          	sw	zero,256(t0)
80000f96:	00001337          	lui	t1,0x1
80000f9a:	80430313          	addi	t1,t1,-2044 # 804 <others+0x6fa>
80000f9e:	8302                	jr	t1

80000fa0 <prog_clrdint_and_halt>:
80000fa0:	4281                	li	t0,0
80000fa2:	1002a023          	sw	zero,256(t0)
80000fa6:	7b047073          	csrci	dcsr,8
80000faa:	00001337          	lui	t1,0x1
80000fae:	80430313          	addi	t1,t1,-2044 # 804 <others+0x6fa>
80000fb2:	8302                	jr	t1
80000fb4:	00000013          	nop
80000fb8:	00000013          	nop
80000fbc:	00000013          	nop

80000fc0 <copy_code>:
80000fc0:	157d                	addi	a0,a0,-1
80000fc2:	00054b63          	bltz	a0,80000fd8 <copy_code_end>

80000fc6 <copy_code_loop>:
80000fc6:	0005af83          	lw	t6,0(a1)
80000fca:	01f62023          	sw	t6,0(a2)
80000fce:	0591                	addi	a1,a1,4
80000fd0:	0611                	addi	a2,a2,4
80000fd2:	157d                	addi	a0,a0,-1
80000fd4:	fe0559e3          	bgez	a0,80000fc6 <copy_code_loop>

80000fd8 <copy_code_end>:
80000fd8:	8082                	ret
80000fda:	0000                	unimp
	...

Disassembly of section .tohost:

80001000 <tohost>:
	...

80001040 <fromhost>:
	...

Disassembly of section .data:

80002000 <test_trap_data>:
	...
