
soc-p-pwm0-regs:     file format elf32-littleriscv


Disassembly of section .text.init:

80000000 <_start-0x80>:
80000000:	a071                	j	8000008c <trap_vector>
80000002:	0001                	nop
80000004:	a061                	j	8000008c <trap_vector>
80000006:	0001                	nop
80000008:	a051                	j	8000008c <trap_vector>
8000000a:	0001                	nop
8000000c:	a041                	j	8000008c <trap_vector>
8000000e:	0001                	nop
80000010:	a8b5                	j	8000008c <trap_vector>
80000012:	0001                	nop
80000014:	a8a5                	j	8000008c <trap_vector>
80000016:	0001                	nop
80000018:	a895                	j	8000008c <trap_vector>
8000001a:	0001                	nop
8000001c:	a885                	j	8000008c <trap_vector>
8000001e:	0001                	nop
80000020:	a0b5                	j	8000008c <trap_vector>
80000022:	0001                	nop
80000024:	a0a5                	j	8000008c <trap_vector>
80000026:	0001                	nop
80000028:	a095                	j	8000008c <trap_vector>
8000002a:	0001                	nop
8000002c:	a085                	j	8000008c <trap_vector>
8000002e:	0001                	nop
80000030:	a8b1                	j	8000008c <trap_vector>
80000032:	0001                	nop
80000034:	a8a1                	j	8000008c <trap_vector>
80000036:	0001                	nop
80000038:	a891                	j	8000008c <trap_vector>
8000003a:	0001                	nop
8000003c:	a881                	j	8000008c <trap_vector>
8000003e:	0001                	nop
80000040:	a0b1                	j	8000008c <trap_vector>
80000042:	0001                	nop
80000044:	a0a1                	j	8000008c <trap_vector>
80000046:	0001                	nop
80000048:	a091                	j	8000008c <trap_vector>
8000004a:	0001                	nop
8000004c:	a081                	j	8000008c <trap_vector>
8000004e:	0001                	nop
80000050:	a835                	j	8000008c <trap_vector>
80000052:	0001                	nop
80000054:	a825                	j	8000008c <trap_vector>
80000056:	0001                	nop
80000058:	a815                	j	8000008c <trap_vector>
8000005a:	0001                	nop
8000005c:	a805                	j	8000008c <trap_vector>
8000005e:	0001                	nop
80000060:	a035                	j	8000008c <trap_vector>
80000062:	0001                	nop
80000064:	a025                	j	8000008c <trap_vector>
80000066:	0001                	nop
80000068:	a015                	j	8000008c <trap_vector>
8000006a:	0001                	nop
8000006c:	a005                	j	8000008c <trap_vector>
8000006e:	0001                	nop
80000070:	a831                	j	8000008c <trap_vector>
80000072:	0001                	nop
80000074:	a821                	j	8000008c <trap_vector>
80000076:	0001                	nop
80000078:	a811                	j	8000008c <trap_vector>
8000007a:	0001                	nop
8000007c:	a801                	j	8000008c <trap_vector>
8000007e:	0001                	nop

80000080 <_start>:
80000080:	aa2d                	j	800001ba <reset_vector>
80000082:	0001                	nop

80000084 <trap_illegal_instr>:
80000084:	a021                	j	8000008c <trap_vector>
80000086:	0001                	nop

80000088 <trap_ecall>:
80000088:	a011                	j	8000008c <trap_vector>
8000008a:	0001                	nop

8000008c <trap_vector>:
8000008c:	34051073          	csrw	mscratch,a0
80000090:	00002517          	auipc	a0,0x2
80000094:	f7050513          	addi	a0,a0,-144 # 80002000 <test_trap_data>
80000098:	01e52023          	sw	t5,0(a0)
8000009c:	01f52223          	sw	t6,4(a0)
800000a0:	34202f73          	csrr	t5,mcause
800000a4:	040f4163          	bltz	t5,800000e6 <other_interrupts>
800000a8:	4fa1                	li	t6,8
800000aa:	07ff0263          	beq	t5,t6,8000010e <write_tohost>
800000ae:	4fa5                	li	t6,9
800000b0:	05ff0f63          	beq	t5,t6,8000010e <write_tohost>
800000b4:	4fad                	li	t6,11
800000b6:	05ff0c63          	beq	t5,t6,8000010e <write_tohost>
800000ba:	4f85                	li	t6,1
800000bc:	0bff0563          	beq	t5,t6,80000166 <ifetch_error_handler>
800000c0:	4f95                	li	t6,5
800000c2:	0dff0063          	beq	t5,t6,80000182 <load_error_handler>
800000c6:	4f9d                	li	t6,7
800000c8:	0dff0b63          	beq	t5,t6,8000019e <store_error_handler>
800000cc:	80000f17          	auipc	t5,0x80000
800000d0:	f34f0f13          	addi	t5,t5,-204 # 0 <myres>
800000d4:	000f0363          	beqz	t5,800000da <trap_vector+0x4e>
800000d8:	8f02                	jr	t5
800000da:	34202f73          	csrr	t5,mcause
800000de:	000f5363          	bgez	t5,800000e4 <handle_exception>
800000e2:	a009                	j	800000e4 <handle_exception>

800000e4 <handle_exception>:
800000e4:	a01d                	j	8000010a <other_interrupts+0x24>

800000e6 <other_interrupts>:
800000e6:	80000fb7          	lui	t6,0x80000
800000ea:	003f8f93          	addi	t6,t6,3 # 80000003 <bit_zerocmp_clr+0x80000204>
800000ee:	05ff0463          	beq	t5,t6,80000136 <sft_irq_handler>
800000f2:	80000fb7          	lui	t6,0x80000
800000f6:	007f8f93          	addi	t6,t6,7 # 80000007 <bit_zerocmp_clr+0x80000208>
800000fa:	05ff0a63          	beq	t5,t6,8000014e <tmr_irq_handler>
800000fe:	80000fb7          	lui	t6,0x80000
80000102:	00bf8f93          	addi	t6,t6,11 # 8000000b <bit_zerocmp_clr+0x8000020c>
80000106:	01ff0c63          	beq	t5,t6,8000011e <ext_irq_handler>
8000010a:	5391e193          	ori	gp,gp,1337

8000010e <write_tohost>:
8000010e:	4521                	li	a0,8
80000110:	30052073          	csrs	mstatus,a0
80000114:	00001f17          	auipc	t5,0x1
80000118:	ee3f2623          	sw	gp,-276(t5) # 80001000 <tohost>
8000011c:	bfcd                	j	8000010e <write_tohost>

8000011e <ext_irq_handler>:
8000011e:	00002517          	auipc	a0,0x2
80000122:	ee250513          	addi	a0,a0,-286 # 80002000 <test_trap_data>
80000126:	00052f03          	lw	t5,0(a0)
8000012a:	00452f83          	lw	t6,4(a0)
8000012e:	34002573          	csrr	a0,mscratch
80000132:	30200073          	mret

80000136 <sft_irq_handler>:
80000136:	00002517          	auipc	a0,0x2
8000013a:	eca50513          	addi	a0,a0,-310 # 80002000 <test_trap_data>
8000013e:	00052f03          	lw	t5,0(a0)
80000142:	00452f83          	lw	t6,4(a0)
80000146:	34002573          	csrr	a0,mscratch
8000014a:	30200073          	mret

8000014e <tmr_irq_handler>:
8000014e:	00002517          	auipc	a0,0x2
80000152:	eb250513          	addi	a0,a0,-334 # 80002000 <test_trap_data>
80000156:	00052f03          	lw	t5,0(a0)
8000015a:	00452f83          	lw	t6,4(a0)
8000015e:	34002573          	csrr	a0,mscratch
80000162:	30200073          	mret

80000166 <ifetch_error_handler>:
80000166:	00002517          	auipc	a0,0x2
8000016a:	e9a50513          	addi	a0,a0,-358 # 80002000 <test_trap_data>
8000016e:	00052f03          	lw	t5,0(a0)
80000172:	00452f83          	lw	t6,4(a0)
80000176:	34302573          	csrr	a0,mbadaddr
8000017a:	34002573          	csrr	a0,mscratch
8000017e:	30200073          	mret

80000182 <load_error_handler>:
80000182:	00002517          	auipc	a0,0x2
80000186:	e7e50513          	addi	a0,a0,-386 # 80002000 <test_trap_data>
8000018a:	00052f03          	lw	t5,0(a0)
8000018e:	00452f83          	lw	t6,4(a0)
80000192:	34302573          	csrr	a0,mbadaddr
80000196:	34002573          	csrr	a0,mscratch
8000019a:	30200073          	mret

8000019e <store_error_handler>:
8000019e:	00002517          	auipc	a0,0x2
800001a2:	e6250513          	addi	a0,a0,-414 # 80002000 <test_trap_data>
800001a6:	00052f03          	lw	t5,0(a0)
800001aa:	00452f83          	lw	t6,4(a0)
800001ae:	34302573          	csrr	a0,mbadaddr
800001b2:	34002573          	csrr	a0,mscratch
800001b6:	30200073          	mret

800001ba <reset_vector>:
800001ba:	00000f13          	li	t5,0
800001be:	00000f93          	li	t6,0
800001c2:	f1402573          	csrr	a0,mhartid
800001c6:	e101                	bnez	a0,800001c6 <reset_vector+0xc>
800001c8:	4181                	li	gp,0
800001ca:	00000297          	auipc	t0,0x0
800001ce:	ec228293          	addi	t0,t0,-318 # 8000008c <trap_vector>
800001d2:	4521                	li	a0,8
800001d4:	30052073          	csrs	mstatus,a0
800001d8:	fff00513          	li	a0,-1
800001dc:	30452073          	csrs	mie,a0
800001e0:	30529073          	csrw	mtvec,t0

800001e4 <post_mtvec>:
800001e4:	80000297          	auipc	t0,0x80000
800001e8:	e1c28293          	addi	t0,t0,-484 # 0 <myres>
800001ec:	00028e63          	beqz	t0,80000208 <post_mtvec+0x24>
800001f0:	10529073          	csrw	stvec,t0
800001f4:	0000b2b7          	lui	t0,0xb
800001f8:	10928293          	addi	t0,t0,265 # b109 <bit_enoneshot_set+0x9109>
800001fc:	30229073          	csrw	medeleg,t0
80000200:	30202373          	csrr	t1,medeleg
80000204:	ee6290e3          	bne	t0,t1,800000e4 <handle_exception>
80000208:	30005073          	csrwi	mstatus,0
8000020c:	08000513          	li	a0,128
80000210:	30052073          	csrs	mstatus,a0
80000214:	4501                	li	a0,0
80000216:	bfc51073          	csrw	0xbfc,a0
8000021a:	00002537          	lui	a0,0x2
8000021e:	80050513          	addi	a0,a0,-2048 # 1800 <bit_enalways_set+0x800>
80000222:	30052073          	csrs	mstatus,a0
80000226:	00000297          	auipc	t0,0x0
8000022a:	01428293          	addi	t0,t0,20 # 8000023a <test_1>
8000022e:	34129073          	csrw	mepc,t0
80000232:	f1402573          	csrr	a0,mhartid
80000236:	30200073          	mret

8000023a <test_1>:
8000023a:	100150b7          	lui	ra,0x10015
8000023e:	0000af03          	lw	t5,0(ra) # 10015000 <ip0_mask+0x15000>
80000242:	f0000eb7          	lui	t4,0xf0000
80000246:	4185                	li	gp,1
80000248:	7ddf1c63          	bne	t5,t4,80000a20 <fail>

8000024c <test_2>:
8000024c:	100150b7          	lui	ra,0x10015
80000250:	0080af03          	lw	t5,8(ra) # 10015008 <ip0_mask+0x15008>
80000254:	4e81                	li	t4,0
80000256:	4189                	li	gp,2
80000258:	7ddf1463          	bne	t5,t4,80000a20 <fail>

8000025c <test_3>:
8000025c:	100150b7          	lui	ra,0x10015
80000260:	0100af03          	lw	t5,16(ra) # 10015010 <ip0_mask+0x15010>
80000264:	4e81                	li	t4,0
80000266:	418d                	li	gp,3
80000268:	7bdf1c63          	bne	t5,t4,80000a20 <fail>

8000026c <test_4>:
8000026c:	100150b7          	lui	ra,0x10015
80000270:	0200af03          	lw	t5,32(ra) # 10015020 <ip0_mask+0x15020>
80000274:	4e81                	li	t4,0
80000276:	4191                	li	gp,4
80000278:	7bdf1463          	bne	t5,t4,80000a20 <fail>

8000027c <test_5>:
8000027c:	100150b7          	lui	ra,0x10015
80000280:	0240af03          	lw	t5,36(ra) # 10015024 <ip0_mask+0x15024>
80000284:	4e81                	li	t4,0
80000286:	4195                	li	gp,5
80000288:	79df1c63          	bne	t5,t4,80000a20 <fail>

8000028c <test_6>:
8000028c:	100150b7          	lui	ra,0x10015
80000290:	0280af03          	lw	t5,40(ra) # 10015028 <ip0_mask+0x15028>
80000294:	4e81                	li	t4,0
80000296:	4199                	li	gp,6
80000298:	79df1463          	bne	t5,t4,80000a20 <fail>

8000029c <test_7>:
8000029c:	100150b7          	lui	ra,0x10015
800002a0:	02c0af03          	lw	t5,44(ra) # 1001502c <ip0_mask+0x1502c>
800002a4:	4e81                	li	t4,0
800002a6:	419d                	li	gp,7
800002a8:	77df1c63          	bne	t5,t4,80000a20 <fail>

800002ac <test_100>:
800002ac:	100150b7          	lui	ra,0x10015
800002b0:	aaaabf37          	lui	t5,0xaaaab
800002b4:	aaaf0f13          	addi	t5,t5,-1366 # aaaaaaaa <bit_zerocmp_clr+0xaaaaacab>
800002b8:	01e0a823          	sw	t5,16(ra) # 10015010 <ip0_mask+0x15010>
800002bc:	0100af03          	lw	t5,16(ra)
800002c0:	4e81                	li	t4,0
800002c2:	06400193          	li	gp,100
800002c6:	75df1d63          	bne	t5,t4,80000a20 <fail>

800002ca <test_101>:
800002ca:	100150b7          	lui	ra,0x10015
800002ce:	55555f37          	lui	t5,0x55555
800002d2:	555f0f13          	addi	t5,t5,1365 # 55555555 <ip0_mask+0x45555555>
800002d6:	01e0a823          	sw	t5,16(ra) # 10015010 <ip0_mask+0x15010>
800002da:	0100af03          	lw	t5,16(ra)
800002de:	4e81                	li	t4,0
800002e0:	06500193          	li	gp,101
800002e4:	73df1e63          	bne	t5,t4,80000a20 <fail>

800002e8 <test_102>:
800002e8:	100150b7          	lui	ra,0x10015
800002ec:	4f01                	li	t5,0
800002ee:	01e0a823          	sw	t5,16(ra) # 10015010 <ip0_mask+0x15010>
800002f2:	0100af03          	lw	t5,16(ra)
800002f6:	4e81                	li	t4,0
800002f8:	06600193          	li	gp,102
800002fc:	73df1263          	bne	t5,t4,80000a20 <fail>

80000300 <test_103>:
80000300:	100150b7          	lui	ra,0x10015
80000304:	fff00f13          	li	t5,-1
80000308:	01e0a823          	sw	t5,16(ra) # 10015010 <ip0_mask+0x15010>
8000030c:	0100af03          	lw	t5,16(ra)
80000310:	4e81                	li	t4,0
80000312:	06700193          	li	gp,103
80000316:	71df1563          	bne	t5,t4,80000a20 <fail>

8000031a <test_110>:
8000031a:	100150b7          	lui	ra,0x10015
8000031e:	fff00f13          	li	t5,-1
80000322:	01e0a423          	sw	t5,8(ra) # 10015008 <ip0_mask+0x15008>
80000326:	0080af03          	lw	t5,8(ra)
8000032a:	00800eb7          	lui	t4,0x800
8000032e:	fffe8e93          	addi	t4,t4,-1 # 7fffff <cnt_val+0xff>
80000332:	06e00193          	li	gp,110
80000336:	6fdf1563          	bne	t5,t4,80000a20 <fail>

8000033a <test_111>:
8000033a:	100150b7          	lui	ra,0x10015
8000033e:	aaaabf37          	lui	t5,0xaaaab
80000342:	aaaf0f13          	addi	t5,t5,-1366 # aaaaaaaa <bit_zerocmp_clr+0xaaaaacab>
80000346:	01e0a423          	sw	t5,8(ra) # 10015008 <ip0_mask+0x15008>
8000034a:	0080af03          	lw	t5,8(ra)
8000034e:	002abeb7          	lui	t4,0x2ab
80000352:	aaae8e93          	addi	t4,t4,-1366 # 2aaaaa <bit_enoneshot_set+0x2a8aaa>
80000356:	06f00193          	li	gp,111
8000035a:	6ddf1363          	bne	t5,t4,80000a20 <fail>

8000035e <test_112>:
8000035e:	100150b7          	lui	ra,0x10015
80000362:	55555f37          	lui	t5,0x55555
80000366:	555f0f13          	addi	t5,t5,1365 # 55555555 <ip0_mask+0x45555555>
8000036a:	01e0a423          	sw	t5,8(ra) # 10015008 <ip0_mask+0x15008>
8000036e:	0080af03          	lw	t5,8(ra)
80000372:	00555eb7          	lui	t4,0x555
80000376:	555e8e93          	addi	t4,t4,1365 # 555555 <bit_enoneshot_set+0x553555>
8000037a:	07000193          	li	gp,112
8000037e:	6bdf1163          	bne	t5,t4,80000a20 <fail>

80000382 <test_113>:
80000382:	100150b7          	lui	ra,0x10015
80000386:	4f01                	li	t5,0
80000388:	01e0a423          	sw	t5,8(ra) # 10015008 <ip0_mask+0x15008>
8000038c:	0080af03          	lw	t5,8(ra)
80000390:	4e81                	li	t4,0
80000392:	07100193          	li	gp,113
80000396:	69df1563          	bne	t5,t4,80000a20 <fail>

8000039a <test_120>:
8000039a:	100150b7          	lui	ra,0x10015
8000039e:	aaaabf37          	lui	t5,0xaaaab
800003a2:	aaaf0f13          	addi	t5,t5,-1366 # aaaaaaaa <bit_zerocmp_clr+0xaaaaacab>
800003a6:	03e0a023          	sw	t5,32(ra) # 10015020 <ip0_mask+0x15020>
800003aa:	0200af03          	lw	t5,32(ra)
800003ae:	0aa00e93          	li	t4,170
800003b2:	07800193          	li	gp,120
800003b6:	67df1563          	bne	t5,t4,80000a20 <fail>

800003ba <test_121>:
800003ba:	100150b7          	lui	ra,0x10015
800003be:	55555f37          	lui	t5,0x55555
800003c2:	555f0f13          	addi	t5,t5,1365 # 55555555 <ip0_mask+0x45555555>
800003c6:	03e0a023          	sw	t5,32(ra) # 10015020 <ip0_mask+0x15020>
800003ca:	0200af03          	lw	t5,32(ra)
800003ce:	05500e93          	li	t4,85
800003d2:	07900193          	li	gp,121
800003d6:	65df1563          	bne	t5,t4,80000a20 <fail>

800003da <test_122>:
800003da:	100150b7          	lui	ra,0x10015
800003de:	4f01                	li	t5,0
800003e0:	03e0a023          	sw	t5,32(ra) # 10015020 <ip0_mask+0x15020>
800003e4:	0200af03          	lw	t5,32(ra)
800003e8:	4e81                	li	t4,0
800003ea:	07a00193          	li	gp,122
800003ee:	63df1963          	bne	t5,t4,80000a20 <fail>

800003f2 <test_123>:
800003f2:	100150b7          	lui	ra,0x10015
800003f6:	fff00f13          	li	t5,-1
800003fa:	03e0a023          	sw	t5,32(ra) # 10015020 <ip0_mask+0x15020>
800003fe:	0200af03          	lw	t5,32(ra)
80000402:	0ff00e93          	li	t4,255
80000406:	07b00193          	li	gp,123
8000040a:	61df1b63          	bne	t5,t4,80000a20 <fail>

8000040e <test_130>:
8000040e:	100150b7          	lui	ra,0x10015
80000412:	aaaabf37          	lui	t5,0xaaaab
80000416:	aaaf0f13          	addi	t5,t5,-1366 # aaaaaaaa <bit_zerocmp_clr+0xaaaaacab>
8000041a:	03e0a223          	sw	t5,36(ra) # 10015024 <ip0_mask+0x15024>
8000041e:	0240af03          	lw	t5,36(ra)
80000422:	0aa00e93          	li	t4,170
80000426:	08200193          	li	gp,130
8000042a:	5fdf1b63          	bne	t5,t4,80000a20 <fail>

8000042e <test_131>:
8000042e:	100150b7          	lui	ra,0x10015
80000432:	55555f37          	lui	t5,0x55555
80000436:	555f0f13          	addi	t5,t5,1365 # 55555555 <ip0_mask+0x45555555>
8000043a:	03e0a223          	sw	t5,36(ra) # 10015024 <ip0_mask+0x15024>
8000043e:	0240af03          	lw	t5,36(ra)
80000442:	05500e93          	li	t4,85
80000446:	08300193          	li	gp,131
8000044a:	5ddf1b63          	bne	t5,t4,80000a20 <fail>

8000044e <test_132>:
8000044e:	100150b7          	lui	ra,0x10015
80000452:	4f01                	li	t5,0
80000454:	03e0a223          	sw	t5,36(ra) # 10015024 <ip0_mask+0x15024>
80000458:	0240af03          	lw	t5,36(ra)
8000045c:	4e81                	li	t4,0
8000045e:	08400193          	li	gp,132
80000462:	5bdf1f63          	bne	t5,t4,80000a20 <fail>

80000466 <test_133>:
80000466:	100150b7          	lui	ra,0x10015
8000046a:	fff00f13          	li	t5,-1
8000046e:	03e0a223          	sw	t5,36(ra) # 10015024 <ip0_mask+0x15024>
80000472:	0240af03          	lw	t5,36(ra)
80000476:	0ff00e93          	li	t4,255
8000047a:	08500193          	li	gp,133
8000047e:	5bdf1163          	bne	t5,t4,80000a20 <fail>

80000482 <test_140>:
80000482:	100150b7          	lui	ra,0x10015
80000486:	aaaabf37          	lui	t5,0xaaaab
8000048a:	aaaf0f13          	addi	t5,t5,-1366 # aaaaaaaa <bit_zerocmp_clr+0xaaaaacab>
8000048e:	03e0a423          	sw	t5,40(ra) # 10015028 <ip0_mask+0x15028>
80000492:	0280af03          	lw	t5,40(ra)
80000496:	0aa00e93          	li	t4,170
8000049a:	08c00193          	li	gp,140
8000049e:	59df1163          	bne	t5,t4,80000a20 <fail>

800004a2 <test_141>:
800004a2:	100150b7          	lui	ra,0x10015
800004a6:	55555f37          	lui	t5,0x55555
800004aa:	555f0f13          	addi	t5,t5,1365 # 55555555 <ip0_mask+0x45555555>
800004ae:	03e0a423          	sw	t5,40(ra) # 10015028 <ip0_mask+0x15028>
800004b2:	0280af03          	lw	t5,40(ra)
800004b6:	05500e93          	li	t4,85
800004ba:	08d00193          	li	gp,141
800004be:	57df1163          	bne	t5,t4,80000a20 <fail>

800004c2 <test_142>:
800004c2:	100150b7          	lui	ra,0x10015
800004c6:	4f01                	li	t5,0
800004c8:	03e0a423          	sw	t5,40(ra) # 10015028 <ip0_mask+0x15028>
800004cc:	0280af03          	lw	t5,40(ra)
800004d0:	4e81                	li	t4,0
800004d2:	08e00193          	li	gp,142
800004d6:	55df1563          	bne	t5,t4,80000a20 <fail>

800004da <test_143>:
800004da:	100150b7          	lui	ra,0x10015
800004de:	fff00f13          	li	t5,-1
800004e2:	03e0a423          	sw	t5,40(ra) # 10015028 <ip0_mask+0x15028>
800004e6:	0280af03          	lw	t5,40(ra)
800004ea:	0ff00e93          	li	t4,255
800004ee:	08f00193          	li	gp,143
800004f2:	53df1763          	bne	t5,t4,80000a20 <fail>

800004f6 <test_150>:
800004f6:	100150b7          	lui	ra,0x10015
800004fa:	aaaabf37          	lui	t5,0xaaaab
800004fe:	aaaf0f13          	addi	t5,t5,-1366 # aaaaaaaa <bit_zerocmp_clr+0xaaaaacab>
80000502:	03e0a623          	sw	t5,44(ra) # 1001502c <ip0_mask+0x1502c>
80000506:	02c0af03          	lw	t5,44(ra)
8000050a:	0aa00e93          	li	t4,170
8000050e:	09600193          	li	gp,150
80000512:	51df1763          	bne	t5,t4,80000a20 <fail>

80000516 <test_151>:
80000516:	100150b7          	lui	ra,0x10015
8000051a:	55555f37          	lui	t5,0x55555
8000051e:	555f0f13          	addi	t5,t5,1365 # 55555555 <ip0_mask+0x45555555>
80000522:	03e0a623          	sw	t5,44(ra) # 1001502c <ip0_mask+0x1502c>
80000526:	02c0af03          	lw	t5,44(ra)
8000052a:	05500e93          	li	t4,85
8000052e:	09700193          	li	gp,151
80000532:	4fdf1763          	bne	t5,t4,80000a20 <fail>

80000536 <test_152>:
80000536:	100150b7          	lui	ra,0x10015
8000053a:	4f01                	li	t5,0
8000053c:	03e0a623          	sw	t5,44(ra) # 1001502c <ip0_mask+0x1502c>
80000540:	02c0af03          	lw	t5,44(ra)
80000544:	4e81                	li	t4,0
80000546:	09800193          	li	gp,152
8000054a:	4ddf1b63          	bne	t5,t4,80000a20 <fail>

8000054e <test_153>:
8000054e:	100150b7          	lui	ra,0x10015
80000552:	fff00f13          	li	t5,-1
80000556:	03e0a623          	sw	t5,44(ra) # 1001502c <ip0_mask+0x1502c>
8000055a:	02c0af03          	lw	t5,44(ra)
8000055e:	0ff00e93          	li	t4,255
80000562:	09900193          	li	gp,153
80000566:	4bdf1d63          	bne	t5,t4,80000a20 <fail>

8000056a <test_160>:
8000056a:	100150b7          	lui	ra,0x10015
8000056e:	fff00f13          	li	t5,-1
80000572:	01e0a023          	sw	t5,0(ra) # 10015000 <ip0_mask+0x15000>
80000576:	0000af03          	lw	t5,0(ra)
8000057a:	01000eb7          	lui	t4,0x1000
8000057e:	fffe8e93          	addi	t4,t4,-1 # ffffff <cnt_val+0x8000ff>
80000582:	01df7f33          	and	t5,t5,t4
80000586:	000f3eb7          	lui	t4,0xf3
8000058a:	70fe8e93          	addi	t4,t4,1807 # f370f <bit_enoneshot_set+0xf170f>
8000058e:	0a000193          	li	gp,160
80000592:	49df1763          	bne	t5,t4,80000a20 <fail>

80000596 <test_161>:
80000596:	100150b7          	lui	ra,0x10015
8000059a:	aaaabf37          	lui	t5,0xaaaab
8000059e:	aaaf0f13          	addi	t5,t5,-1366 # aaaaaaaa <bit_zerocmp_clr+0xaaaaacab>
800005a2:	01e0a023          	sw	t5,0(ra) # 10015000 <ip0_mask+0x15000>
800005a6:	0000af03          	lw	t5,0(ra)
800005aa:	01000eb7          	lui	t4,0x1000
800005ae:	fffe8e93          	addi	t4,t4,-1 # ffffff <cnt_val+0x8000ff>
800005b2:	01df7f33          	and	t5,t5,t4
800005b6:	000a2eb7          	lui	t4,0xa2
800005ba:	20ae8e93          	addi	t4,t4,522 # a220a <bit_enoneshot_set+0xa020a>
800005be:	0a100193          	li	gp,161
800005c2:	45df1f63          	bne	t5,t4,80000a20 <fail>

800005c6 <test_162>:
800005c6:	100150b7          	lui	ra,0x10015
800005ca:	55555f37          	lui	t5,0x55555
800005ce:	555f0f13          	addi	t5,t5,1365 # 55555555 <ip0_mask+0x45555555>
800005d2:	01e0a023          	sw	t5,0(ra) # 10015000 <ip0_mask+0x15000>
800005d6:	0000af03          	lw	t5,0(ra)
800005da:	01000eb7          	lui	t4,0x1000
800005de:	fffe8e93          	addi	t4,t4,-1 # ffffff <cnt_val+0x8000ff>
800005e2:	01df7f33          	and	t5,t5,t4
800005e6:	00051eb7          	lui	t4,0x51
800005ea:	505e8e93          	addi	t4,t4,1285 # 51505 <bit_enoneshot_set+0x4f505>
800005ee:	0a200193          	li	gp,162
800005f2:	43df1763          	bne	t5,t4,80000a20 <fail>

800005f6 <test_163>:
800005f6:	100150b7          	lui	ra,0x10015
800005fa:	4f01                	li	t5,0
800005fc:	01e0a023          	sw	t5,0(ra) # 10015000 <ip0_mask+0x15000>
80000600:	0000af03          	lw	t5,0(ra)
80000604:	01000eb7          	lui	t4,0x1000
80000608:	fffe8e93          	addi	t4,t4,-1 # ffffff <cnt_val+0x8000ff>
8000060c:	01df7f33          	and	t5,t5,t4
80000610:	4e81                	li	t4,0
80000612:	0a300193          	li	gp,163
80000616:	41df1563          	bne	t5,t4,80000a20 <fail>

8000061a <test_cfg_ip>:
8000061a:	10015f37          	lui	t5,0x10015
8000061e:	4e85                	li	t4,1
80000620:	03df2023          	sw	t4,32(t5) # 10015020 <ip0_mask+0x15020>
80000624:	0e86                	slli	t4,t4,0x1
80000626:	03df2223          	sw	t4,36(t5)
8000062a:	0e86                	slli	t4,t4,0x1
8000062c:	03df2423          	sw	t4,40(t5)
80000630:	0e86                	slli	t4,t4,0x1
80000632:	03df2623          	sw	t4,44(t5)
80000636:	000f2423          	sw	zero,8(t5)
8000063a:	000f2023          	sw	zero,0(t5)

8000063e <test_200>:
8000063e:	100150b7          	lui	ra,0x10015
80000642:	0000af03          	lw	t5,0(ra) # 10015000 <ip0_mask+0x15000>
80000646:	4e81                	li	t4,0
80000648:	0c800193          	li	gp,200
8000064c:	3ddf1a63          	bne	t5,t4,80000a20 <fail>
80000650:	4e85                	li	t4,1
80000652:	10015f37          	lui	t5,0x10015
80000656:	01df2423          	sw	t4,8(t5) # 10015008 <ip0_mask+0x15008>

8000065a <test_210>:
8000065a:	100150b7          	lui	ra,0x10015
8000065e:	0000af03          	lw	t5,0(ra) # 10015000 <ip0_mask+0x15000>
80000662:	10000eb7          	lui	t4,0x10000
80000666:	0d200193          	li	gp,210
8000066a:	3bdf1b63          	bne	t5,t4,80000a20 <fail>
8000066e:	4e89                	li	t4,2
80000670:	10015f37          	lui	t5,0x10015
80000674:	01df2423          	sw	t4,8(t5) # 10015008 <ip0_mask+0x15008>

80000678 <test_211>:
80000678:	100150b7          	lui	ra,0x10015
8000067c:	0000af03          	lw	t5,0(ra) # 10015000 <ip0_mask+0x15000>
80000680:	30000eb7          	lui	t4,0x30000
80000684:	0d300193          	li	gp,211
80000688:	39df1c63          	bne	t5,t4,80000a20 <fail>
8000068c:	4e91                	li	t4,4
8000068e:	10015f37          	lui	t5,0x10015
80000692:	01df2423          	sw	t4,8(t5) # 10015008 <ip0_mask+0x15008>

80000696 <test_212>:
80000696:	100150b7          	lui	ra,0x10015
8000069a:	0000af03          	lw	t5,0(ra) # 10015000 <ip0_mask+0x15000>
8000069e:	70000eb7          	lui	t4,0x70000
800006a2:	0d400193          	li	gp,212
800006a6:	37df1d63          	bne	t5,t4,80000a20 <fail>
800006aa:	4ea1                	li	t4,8
800006ac:	10015f37          	lui	t5,0x10015
800006b0:	01df2423          	sw	t4,8(t5) # 10015008 <ip0_mask+0x15008>

800006b4 <test_213>:
800006b4:	100150b7          	lui	ra,0x10015
800006b8:	0000af03          	lw	t5,0(ra) # 10015000 <ip0_mask+0x15000>
800006bc:	f0000eb7          	lui	t4,0xf0000
800006c0:	0d500193          	li	gp,213
800006c4:	35df1e63          	bne	t5,t4,80000a20 <fail>
800006c8:	10015f37          	lui	t5,0x10015
800006cc:	000f2423          	sw	zero,8(t5) # 10015008 <ip0_mask+0x15008>

800006d0 <test_214>:
800006d0:	100150b7          	lui	ra,0x10015
800006d4:	0000af03          	lw	t5,0(ra) # 10015000 <ip0_mask+0x15000>
800006d8:	4e81                	li	t4,0
800006da:	0d600193          	li	gp,214
800006de:	35df1163          	bne	t5,t4,80000a20 <fail>

800006e2 <test_cfg_ip_sticky>:
800006e2:	10015f37          	lui	t5,0x10015
800006e6:	10006e93          	ori	t4,zero,256
800006ea:	01df2023          	sw	t4,0(t5) # 10015000 <ip0_mask+0x15000>
800006ee:	f0000eb7          	lui	t4,0xf0000
800006f2:	100eee93          	ori	t4,t4,256
800006f6:	01df2023          	sw	t4,0(t5)
800006fa:	000f2e03          	lw	t3,0(t5)
800006fe:	0dc00193          	li	gp,220
80000702:	31de1f63          	bne	t3,t4,80000a20 <fail>
80000706:	10015f37          	lui	t5,0x10015
8000070a:	10006e93          	ori	t4,zero,256
8000070e:	01df2023          	sw	t4,0(t5) # 10015000 <ip0_mask+0x15000>
80000712:	000f2e03          	lw	t3,0(t5)
80000716:	0dd00193          	li	gp,221
8000071a:	31de1363          	bne	t3,t4,80000a20 <fail>
8000071e:	4ea1                	li	t4,8
80000720:	10015f37          	lui	t5,0x10015
80000724:	01df2423          	sw	t4,8(t5) # 10015008 <ip0_mask+0x15008>
80000728:	000f2423          	sw	zero,8(t5)
8000072c:	f0000eb7          	lui	t4,0xf0000
80000730:	100eee93          	ori	t4,t4,256
80000734:	000f2e03          	lw	t3,0(t5)
80000738:	0de00193          	li	gp,222
8000073c:	2fde1263          	bne	t3,t4,80000a20 <fail>

80000740 <test_cfg_scale>:
80000740:	0e600393          	li	t2,230
80000744:	10015f37          	lui	t5,0x10015
80000748:	00f00e93          	li	t4,15
8000074c:	01df2023          	sw	t4,0(t5) # 10015000 <ip0_mask+0x15000>
80000750:	002beeb7          	lui	t4,0x2be
80000754:	cefe8e93          	addi	t4,t4,-785 # 2bdcef <bit_enoneshot_set+0x2bbcef>
80000758:	01df2423          	sw	t4,8(t5)
8000075c:	10015f37          	lui	t5,0x10015
80000760:	000f2e83          	lw	t4,0(t5) # 10015000 <ip0_mask+0x15000>
80000764:	0e85                	addi	t4,t4,1
80000766:	00fefe93          	andi	t4,t4,15
8000076a:	01df2023          	sw	t4,0(t5)
8000076e:	002bee37          	lui	t3,0x2be
80000772:	cefe0e13          	addi	t3,t3,-785 # 2bdcef <bit_enoneshot_set+0x2bbcef>
80000776:	01de5e33          	srl	t3,t3,t4
8000077a:	0ff00e93          	li	t4,255
8000077e:	01de7e33          	and	t3,t3,t4
80000782:	010f2e83          	lw	t4,16(t5)
80000786:	000381b3          	add	gp,t2,zero
8000078a:	29ce9b63          	bne	t4,t3,80000a20 <fail>
8000078e:	0385                	addi	t2,t2,1
80000790:	0f700f13          	li	t5,247
80000794:	fde3c4e3          	blt	t2,t5,8000075c <test_cfg_scale+0x1c>

80000798 <test_cfg_scale_cmp>:
80000798:	10015f37          	lui	t5,0x10015
8000079c:	000f2023          	sw	zero,0(t5) # 10015000 <ip0_mask+0x15000>
800007a0:	00106e93          	ori	t4,zero,1
800007a4:	03df2023          	sw	t4,32(t5)
800007a8:	00206e93          	ori	t4,zero,2
800007ac:	03df2223          	sw	t4,36(t5)
800007b0:	00406e93          	ori	t4,zero,4
800007b4:	03df2423          	sw	t4,40(t5)
800007b8:	00806e93          	ori	t4,zero,8
800007bc:	03df2623          	sw	t4,44(t5)
800007c0:	08000e93          	li	t4,128
800007c4:	01df2423          	sw	t4,8(t5)
800007c8:	f0000eb7          	lui	t4,0xf0000
800007cc:	000f2e03          	lw	t3,0(t5)
800007d0:	01de7e33          	and	t3,t3,t4
800007d4:	0fa00193          	li	gp,250
800007d8:	25de1463          	bne	t3,t4,80000a20 <fail>
800007dc:	10015f37          	lui	t5,0x10015
800007e0:	4ea1                	li	t4,8
800007e2:	01df2023          	sw	t4,0(t5) # 10015000 <ip0_mask+0x15000>
800007e6:	f0000eb7          	lui	t4,0xf0000
800007ea:	000f2e03          	lw	t3,0(t5)
800007ee:	01de7e33          	and	t3,t3,t4
800007f2:	0fb00193          	li	gp,251
800007f6:	220e1563          	bnez	t3,80000a20 <fail>
800007fa:	0fc00393          	li	t2,252
800007fe:	10015f37          	lui	t5,0x10015
80000802:	000f2e83          	lw	t4,0(t5) # 10015000 <ip0_mask+0x15000>
80000806:	f0000e37          	lui	t3,0xf0000
8000080a:	01de7e33          	and	t3,t3,t4
8000080e:	1efd                	addi	t4,t4,-1
80000810:	01df2023          	sw	t4,0(t5)
80000814:	0e06                	slli	t3,t3,0x1
80000816:	10000eb7          	lui	t4,0x10000
8000081a:	01de6e33          	or	t3,t3,t4
8000081e:	000f2e83          	lw	t4,0(t5)
80000822:	f0000f37          	lui	t5,0xf0000
80000826:	01eefeb3          	and	t4,t4,t5
8000082a:	000381b3          	add	gp,t2,zero
8000082e:	1fce9963          	bne	t4,t3,80000a20 <fail>
80000832:	0385                	addi	t2,t2,1
80000834:	10000f13          	li	t5,256
80000838:	fde3c3e3          	blt	t2,t5,800007fe <test_cfg_scale_cmp+0x66>
8000083c:	10015f37          	lui	t5,0x10015
80000840:	000f2023          	sw	zero,0(t5) # 10015000 <ip0_mask+0x15000>
80000844:	4e85                	li	t4,1
80000846:	03df2023          	sw	t4,32(t5)
8000084a:	03df2223          	sw	t4,36(t5)
8000084e:	03df2423          	sw	t4,40(t5)
80000852:	03df2623          	sw	t4,44(t5)
80000856:	00800eb7          	lui	t4,0x800
8000085a:	f00e8e93          	addi	t4,t4,-256 # 7fff00 <cnt_val>
8000085e:	01df2423          	sw	t4,8(t5)
80000862:	000f2e03          	lw	t3,0(t5)
80000866:	010f2383          	lw	t2,16(t5)
8000086a:	10000193          	li	gp,256
8000086e:	1a039963          	bnez	t2,80000a20 <fail>
80000872:	10100193          	li	gp,257
80000876:	1a0e1563          	bnez	t3,80000a20 <fail>

8000087a <test_counting>:
8000087a:	10015f37          	lui	t5,0x10015
8000087e:	000f2023          	sw	zero,0(t5) # 10015000 <ip0_mask+0x15000>
80000882:	0ff00e93          	li	t4,255
80000886:	03df2023          	sw	t4,32(t5)
8000088a:	03df2223          	sw	t4,36(t5)
8000088e:	03df2423          	sw	t4,40(t5)
80000892:	03df2623          	sw	t4,44(t5)
80000896:	10015f37          	lui	t5,0x10015
8000089a:	000f2423          	sw	zero,8(t5) # 10015008 <ip0_mask+0x15008>
8000089e:	008f2e03          	lw	t3,8(t5)
800008a2:	12c00193          	li	gp,300
800008a6:	160e1d63          	bnez	t3,80000a20 <fail>
800008aa:	10015f37          	lui	t5,0x10015
800008ae:	6e85                	lui	t4,0x1
800008b0:	01df2023          	sw	t4,0(t5) # 10015000 <ip0_mask+0x15000>
800008b4:	fffffe37          	lui	t3,0xfffff
800008b8:	fffe0e13          	addi	t3,t3,-1 # ffffefff <bit_zerocmp_clr+0xfffff200>
800008bc:	01cefeb3          	and	t4,t4,t3
800008c0:	01df2023          	sw	t4,0(t5)
800008c4:	008f2e03          	lw	t3,8(t5)
800008c8:	12d00193          	li	gp,301
800008cc:	140e0a63          	beqz	t3,80000a20 <fail>
800008d0:	10015f37          	lui	t5,0x10015
800008d4:	000f2423          	sw	zero,8(t5) # 10015008 <ip0_mask+0x15008>
800008d8:	008f2e03          	lw	t3,8(t5)
800008dc:	12e00193          	li	gp,302
800008e0:	140e1063          	bnez	t3,80000a20 <fail>
800008e4:	10015f37          	lui	t5,0x10015
800008e8:	6e89                	lui	t4,0x2
800008ea:	01df2023          	sw	t4,0(t5) # 10015000 <ip0_mask+0x15000>
800008ee:	ffffee37          	lui	t3,0xffffe
800008f2:	fffe0e13          	addi	t3,t3,-1 # ffffdfff <bit_zerocmp_clr+0xffffe200>
800008f6:	01cefeb3          	and	t4,t4,t3
800008fa:	01df2023          	sw	t4,0(t5)
800008fe:	008f2e03          	lw	t3,8(t5)
80000902:	12f00193          	li	gp,303
80000906:	100e0d63          	beqz	t3,80000a20 <fail>
8000090a:	10015f37          	lui	t5,0x10015
8000090e:	00800eb7          	lui	t4,0x800
80000912:	fffe8e93          	addi	t4,t4,-1 # 7fffff <cnt_val+0xff>
80000916:	01df2423          	sw	t4,8(t5) # 10015008 <ip0_mask+0x15008>
8000091a:	008f2383          	lw	t2,8(t5)
8000091e:	000f2303          	lw	t1,0(t5)
80000922:	f0000e37          	lui	t3,0xf0000
80000926:	01c37333          	and	t1,t1,t3
8000092a:	13000193          	li	gp,304
8000092e:	0fd39963          	bne	t2,t4,80000a20 <fail>
80000932:	13100193          	li	gp,305
80000936:	0fc31563          	bne	t1,t3,80000a20 <fail>
8000093a:	10015f37          	lui	t5,0x10015
8000093e:	6e85                	lui	t4,0x1
80000940:	01df2023          	sw	t4,0(t5) # 10015000 <ip0_mask+0x15000>
80000944:	fffffe37          	lui	t3,0xfffff
80000948:	fffe0e13          	addi	t3,t3,-1 # ffffefff <bit_zerocmp_clr+0xfffff200>
8000094c:	01cefeb3          	and	t4,t4,t3
80000950:	01df2023          	sw	t4,0(t5)
80000954:	008f2383          	lw	t2,8(t5)
80000958:	000f2303          	lw	t1,0(t5)
8000095c:	f0000e37          	lui	t3,0xf0000
80000960:	01c37333          	and	t1,t1,t3
80000964:	13200193          	li	gp,306
80000968:	0a038c63          	beqz	t2,80000a20 <fail>
8000096c:	13300193          	li	gp,307
80000970:	0a031863          	bnez	t1,80000a20 <fail>
80000974:	10015f37          	lui	t5,0x10015
80000978:	00800eb7          	lui	t4,0x800
8000097c:	fffe8e93          	addi	t4,t4,-1 # 7fffff <cnt_val+0xff>
80000980:	01df2423          	sw	t4,8(t5) # 10015008 <ip0_mask+0x15008>
80000984:	008f2383          	lw	t2,8(t5)
80000988:	000f2303          	lw	t1,0(t5)
8000098c:	f0000e37          	lui	t3,0xf0000
80000990:	01c37333          	and	t1,t1,t3
80000994:	13400193          	li	gp,308
80000998:	09d39463          	bne	t2,t4,80000a20 <fail>
8000099c:	13500193          	li	gp,309
800009a0:	09c31063          	bne	t1,t3,80000a20 <fail>
800009a4:	10015f37          	lui	t5,0x10015
800009a8:	6e89                	lui	t4,0x2
800009aa:	01df2023          	sw	t4,0(t5) # 10015000 <ip0_mask+0x15000>
800009ae:	43a9                	li	t2,10
800009b0:	13fd                	addi	t2,t2,-1
800009b2:	fe039fe3          	bnez	t2,800009b0 <test_counting+0x136>
800009b6:	008f2383          	lw	t2,8(t5)
800009ba:	000f2303          	lw	t1,0(t5)
800009be:	f0002e37          	lui	t3,0xf0002
800009c2:	01c37333          	and	t1,t1,t3
800009c6:	13600193          	li	gp,310
800009ca:	04039b63          	bnez	t2,80000a20 <fail>
800009ce:	13700193          	li	gp,311
800009d2:	04031763          	bnez	t1,80000a20 <fail>
800009d6:	10015f37          	lui	t5,0x10015
800009da:	20000e93          	li	t4,512
800009de:	01df2023          	sw	t4,0(t5) # 10015000 <ip0_mask+0x15000>
800009e2:	4ea9                	li	t4,10
800009e4:	03df2023          	sw	t4,32(t5)
800009e8:	01df2423          	sw	t4,8(t5)
800009ec:	008f2383          	lw	t2,8(t5)
800009f0:	14000193          	li	gp,320
800009f4:	02039663          	bnez	t2,80000a20 <fail>
800009f8:	4ead                	li	t4,11
800009fa:	01df2423          	sw	t4,8(t5)
800009fe:	008f2383          	lw	t2,8(t5)
80000a02:	14100193          	li	gp,321
80000a06:	00039d63          	bnez	t2,80000a20 <fail>
80000a0a:	4ea5                	li	t4,9
80000a0c:	01df2423          	sw	t4,8(t5)
80000a10:	008f2383          	lw	t2,8(t5)
80000a14:	14200193          	li	gp,322
80000a18:	01d39463          	bne	t2,t4,80000a20 <fail>
80000a1c:	00301963          	bne	zero,gp,80000a2e <pass>

80000a20 <fail>:
80000a20:	00018063          	beqz	gp,80000a20 <fail>
80000a24:	0186                	slli	gp,gp,0x1
80000a26:	0011e193          	ori	gp,gp,1
80000a2a:	00000073          	ecall

80000a2e <pass>:
80000a2e:	4185                	li	gp,1
80000a30:	00000073          	ecall
	...

Disassembly of section .tohost:

80001000 <tohost>:
	...

80001040 <fromhost>:
	...

Disassembly of section .data:

80002000 <test_trap_data>:
	...
